
MECH458.elf:     file format elf32-avr

Sections:
Idx Name          Size      VMA       LMA       File off  Algn
  0 .data         000001fe  00800100  000019e6  00001a7a  2**0
                  CONTENTS, ALLOC, LOAD, DATA
  1 .text         000019e6  00000000  00000000  00000094  2**1
                  CONTENTS, ALLOC, LOAD, READONLY, CODE
  2 .bss          0000008c  008002fe  008002fe  00001c78  2**0
                  ALLOC
  3 .comment      0000005c  00000000  00000000  00001c78  2**0
                  CONTENTS, READONLY
  4 .note.gnu.avr.deviceinfo 00000040  00000000  00000000  00001cd4  2**2
                  CONTENTS, READONLY
  5 .debug_aranges 00000318  00000000  00000000  00001d14  2**0
                  CONTENTS, READONLY, DEBUGGING
  6 .debug_info   00004d8a  00000000  00000000  0000202c  2**0
                  CONTENTS, READONLY, DEBUGGING
  7 .debug_abbrev 00001a8b  00000000  00000000  00006db6  2**0
                  CONTENTS, READONLY, DEBUGGING
  8 .debug_line   00003214  00000000  00000000  00008841  2**0
                  CONTENTS, READONLY, DEBUGGING
  9 .debug_frame  000007c8  00000000  00000000  0000ba58  2**2
                  CONTENTS, READONLY, DEBUGGING
 10 .debug_str    0000920d  00000000  00000000  0000c220  2**0
                  CONTENTS, READONLY, DEBUGGING
 11 .debug_loc    0000189f  00000000  00000000  0001542d  2**0
                  CONTENTS, READONLY, DEBUGGING
 12 .debug_ranges 000002f0  00000000  00000000  00016ccc  2**0
                  CONTENTS, READONLY, DEBUGGING
 13 .debug_macro  0000410c  00000000  00000000  00016fbc  2**0
                  CONTENTS, READONLY, DEBUGGING

Disassembly of section .text:

00000000 <__vectors>:
       0:	4b c0       	rjmp	.+150    	; 0x98 <__ctors_end>
       2:	00 00       	nop
       4:	67 c0       	rjmp	.+206    	; 0xd4 <__bad_interrupt>
       6:	00 00       	nop
       8:	65 c0       	rjmp	.+202    	; 0xd4 <__bad_interrupt>
       a:	00 00       	nop
       c:	63 c0       	rjmp	.+198    	; 0xd4 <__bad_interrupt>
       e:	00 00       	nop
      10:	61 c0       	rjmp	.+194    	; 0xd4 <__bad_interrupt>
      12:	00 00       	nop
      14:	5f c0       	rjmp	.+190    	; 0xd4 <__bad_interrupt>
      16:	00 00       	nop
      18:	5d c0       	rjmp	.+186    	; 0xd4 <__bad_interrupt>
      1a:	00 00       	nop
      1c:	5b c0       	rjmp	.+182    	; 0xd4 <__bad_interrupt>
      1e:	00 00       	nop
      20:	59 c0       	rjmp	.+178    	; 0xd4 <__bad_interrupt>
      22:	00 00       	nop
      24:	57 c0       	rjmp	.+174    	; 0xd4 <__bad_interrupt>
      26:	00 00       	nop
      28:	55 c0       	rjmp	.+170    	; 0xd4 <__bad_interrupt>
      2a:	00 00       	nop
      2c:	53 c0       	rjmp	.+166    	; 0xd4 <__bad_interrupt>
      2e:	00 00       	nop
      30:	51 c0       	rjmp	.+162    	; 0xd4 <__bad_interrupt>
      32:	00 00       	nop
      34:	d0 c4       	rjmp	.+2464   	; 0x9d6 <__vector_13>
      36:	00 00       	nop
      38:	4d c0       	rjmp	.+154    	; 0xd4 <__bad_interrupt>
      3a:	00 00       	nop
      3c:	4b c0       	rjmp	.+150    	; 0xd4 <__bad_interrupt>
      3e:	00 00       	nop
      40:	49 c0       	rjmp	.+146    	; 0xd4 <__bad_interrupt>
      42:	00 00       	nop
      44:	c4 c7       	rjmp	.+3976   	; 0xfce <__vector_17>
      46:	00 00       	nop
      48:	45 c0       	rjmp	.+138    	; 0xd4 <__bad_interrupt>
      4a:	00 00       	nop
      4c:	43 c0       	rjmp	.+134    	; 0xd4 <__bad_interrupt>
      4e:	00 00       	nop
      50:	41 c0       	rjmp	.+130    	; 0xd4 <__bad_interrupt>
      52:	00 00       	nop
      54:	3f c0       	rjmp	.+126    	; 0xd4 <__bad_interrupt>
      56:	00 00       	nop
      58:	3d c0       	rjmp	.+122    	; 0xd4 <__bad_interrupt>
      5a:	00 00       	nop
      5c:	3b c0       	rjmp	.+118    	; 0xd4 <__bad_interrupt>
      5e:	00 00       	nop
      60:	39 c0       	rjmp	.+114    	; 0xd4 <__bad_interrupt>
      62:	00 00       	nop
      64:	37 c0       	rjmp	.+110    	; 0xd4 <__bad_interrupt>
      66:	00 00       	nop
      68:	35 c0       	rjmp	.+106    	; 0xd4 <__bad_interrupt>
      6a:	00 00       	nop
      6c:	33 c0       	rjmp	.+102    	; 0xd4 <__bad_interrupt>
      6e:	00 00       	nop
      70:	31 c0       	rjmp	.+98     	; 0xd4 <__bad_interrupt>
      72:	00 00       	nop
      74:	46 c0       	rjmp	.+140    	; 0x102 <__vector_29>
      76:	00 00       	nop
      78:	2d c0       	rjmp	.+90     	; 0xd4 <__bad_interrupt>
      7a:	00 00       	nop
      7c:	2b c0       	rjmp	.+86     	; 0xd4 <__bad_interrupt>
      7e:	00 00       	nop
      80:	29 c0       	rjmp	.+82     	; 0xd4 <__bad_interrupt>
      82:	00 00       	nop
      84:	27 c0       	rjmp	.+78     	; 0xd4 <__bad_interrupt>
      86:	00 00       	nop
      88:	25 c0       	rjmp	.+74     	; 0xd4 <__bad_interrupt>
      8a:	00 00       	nop
      8c:	23 c0       	rjmp	.+70     	; 0xd4 <__bad_interrupt>
      8e:	00 00       	nop
      90:	21 c0       	rjmp	.+66     	; 0xd4 <__bad_interrupt>
      92:	00 00       	nop
      94:	1f c0       	rjmp	.+62     	; 0xd4 <__bad_interrupt>
	...

00000098 <__ctors_end>:
      98:	11 24       	eor	r1, r1
      9a:	1f be       	out	0x3f, r1	; 63
      9c:	cf ef       	ldi	r28, 0xFF	; 255
      9e:	d0 e2       	ldi	r29, 0x20	; 32
      a0:	de bf       	out	0x3e, r29	; 62
      a2:	cd bf       	out	0x3d, r28	; 61

000000a4 <__do_copy_data>:
      a4:	12 e0       	ldi	r17, 0x02	; 2
      a6:	a0 e0       	ldi	r26, 0x00	; 0
      a8:	b1 e0       	ldi	r27, 0x01	; 1
      aa:	e6 ee       	ldi	r30, 0xE6	; 230
      ac:	f9 e1       	ldi	r31, 0x19	; 25
      ae:	00 e0       	ldi	r16, 0x00	; 0
      b0:	0b bf       	out	0x3b, r16	; 59
      b2:	02 c0       	rjmp	.+4      	; 0xb8 <__do_copy_data+0x14>
      b4:	07 90       	elpm	r0, Z+
      b6:	0d 92       	st	X+, r0
      b8:	ae 3f       	cpi	r26, 0xFE	; 254
      ba:	b1 07       	cpc	r27, r17
      bc:	d9 f7       	brne	.-10     	; 0xb4 <__do_copy_data+0x10>

000000be <__do_clear_bss>:
      be:	23 e0       	ldi	r18, 0x03	; 3
      c0:	ae ef       	ldi	r26, 0xFE	; 254
      c2:	b2 e0       	ldi	r27, 0x02	; 2
      c4:	01 c0       	rjmp	.+2      	; 0xc8 <.do_clear_bss_start>

000000c6 <.do_clear_bss_loop>:
      c6:	1d 92       	st	X+, r1

000000c8 <.do_clear_bss_start>:
      c8:	aa 38       	cpi	r26, 0x8A	; 138
      ca:	b2 07       	cpc	r27, r18
      cc:	e1 f7       	brne	.-8      	; 0xc6 <.do_clear_bss_loop>
      ce:	1f d3       	rcall	.+1598   	; 0x70e <main>
      d0:	0c 94 f1 0c 	jmp	0x19e2	; 0x19e2 <_exit>

000000d4 <__bad_interrupt>:
      d4:	c7 c3       	rjmp	.+1934   	; 0x864 <__vector_default>

000000d6 <ADC_Init>:

void ADC_Init()
{
	//
	// High Speed, Enable ADC & Interrupts
	ADCSRB |= (1 << ADHSM);			  
      d6:	eb e7       	ldi	r30, 0x7B	; 123
      d8:	f0 e0       	ldi	r31, 0x00	; 0
      da:	80 81       	ld	r24, Z
      dc:	80 68       	ori	r24, 0x80	; 128
      de:	80 83       	st	Z, r24
	ADCSRA |= (1 << ADEN);                
      e0:	ea e7       	ldi	r30, 0x7A	; 122
      e2:	f0 e0       	ldi	r31, 0x00	; 0
      e4:	80 81       	ld	r24, Z
      e6:	80 68       	ori	r24, 0x80	; 128
      e8:	80 83       	st	Z, r24
	ADCSRA |= (1 << ADIE);                
      ea:	80 81       	ld	r24, Z
      ec:	88 60       	ori	r24, 0x08	; 8
      ee:	80 83       	st	Z, r24

	// Input Pin F1
	ADMUX |=  ((1 << REFS0) | (1 << MUX0)); 
      f0:	ac e7       	ldi	r26, 0x7C	; 124
      f2:	b0 e0       	ldi	r27, 0x00	; 0
      f4:	8c 91       	ld	r24, X
      f6:	81 64       	ori	r24, 0x41	; 65
      f8:	8c 93       	st	X, r24

	// Startup conversion (throw away)
	ADCSRA |= _BV(ADSC);
      fa:	80 81       	ld	r24, Z
      fc:	80 64       	ori	r24, 0x40	; 64
      fe:	80 83       	st	Z, r24
     100:	08 95       	ret

00000102 <__vector_29>:
}

/*-----------------------------------------------------------*/

ISR(ADC_vect)
{
     102:	1f 92       	push	r1
     104:	0f 92       	push	r0
     106:	0f b6       	in	r0, 0x3f	; 63
     108:	0f 92       	push	r0
     10a:	11 24       	eor	r1, r1
     10c:	0b b6       	in	r0, 0x3b	; 59
     10e:	0f 92       	push	r0
     110:	2f 93       	push	r18
     112:	3f 93       	push	r19
     114:	8f 93       	push	r24
     116:	9f 93       	push	r25
     118:	ef 93       	push	r30
     11a:	ff 93       	push	r31
	//
	// Take 6 samples	
	if (g_ADCCount < 6)
     11c:	80 91 1e 03 	lds	r24, 0x031E	; 0x80031e <g_ADCCount>
     120:	90 91 1f 03 	lds	r25, 0x031F	; 0x80031f <g_ADCCount+0x1>
     124:	06 97       	sbiw	r24, 0x06	; 6
     126:	d8 f4       	brcc	.+54     	; 0x15e <__vector_29+0x5c>
	{
			g_ADCResult[g_ADCCount++] = ADC;
     128:	80 91 1e 03 	lds	r24, 0x031E	; 0x80031e <g_ADCCount>
     12c:	90 91 1f 03 	lds	r25, 0x031F	; 0x80031f <g_ADCCount+0x1>
     130:	9c 01       	movw	r18, r24
     132:	2f 5f       	subi	r18, 0xFF	; 255
     134:	3f 4f       	sbci	r19, 0xFF	; 255
     136:	30 93 1f 03 	sts	0x031F, r19	; 0x80031f <g_ADCCount+0x1>
     13a:	20 93 1e 03 	sts	0x031E, r18	; 0x80031e <g_ADCCount>
     13e:	20 91 78 00 	lds	r18, 0x0078	; 0x800078 <__TEXT_REGION_LENGTH__+0x7e0078>
     142:	30 91 79 00 	lds	r19, 0x0079	; 0x800079 <__TEXT_REGION_LENGTH__+0x7e0079>
     146:	88 0f       	add	r24, r24
     148:	99 1f       	adc	r25, r25
     14a:	fc 01       	movw	r30, r24
     14c:	e6 5f       	subi	r30, 0xF6	; 246
     14e:	fc 4f       	sbci	r31, 0xFC	; 252
     150:	31 83       	std	Z+1, r19	; 0x01
     152:	20 83       	st	Z, r18
			ADCSRA |= (1 << ADSC);	 
     154:	ea e7       	ldi	r30, 0x7A	; 122
     156:	f0 e0       	ldi	r31, 0x00	; 0
     158:	80 81       	ld	r24, Z
     15a:	80 64       	ori	r24, 0x40	; 64
     15c:	80 83       	st	Z, r24
	}
	if (g_ADCCount == 6) _timer[1].state = READY;
     15e:	80 91 1e 03 	lds	r24, 0x031E	; 0x80031e <g_ADCCount>
     162:	90 91 1f 03 	lds	r25, 0x031F	; 0x80031f <g_ADCCount+0x1>
     166:	06 97       	sbiw	r24, 0x06	; 6
     168:	19 f4       	brne	.+6      	; 0x170 <__vector_29+0x6e>
     16a:	82 e0       	ldi	r24, 0x02	; 2
     16c:	80 93 3b 03 	sts	0x033B, r24	; 0x80033b <_timer+0x11>
}
     170:	ff 91       	pop	r31
     172:	ef 91       	pop	r30
     174:	9f 91       	pop	r25
     176:	8f 91       	pop	r24
     178:	3f 91       	pop	r19
     17a:	2f 91       	pop	r18
     17c:	0f 90       	pop	r0
     17e:	0b be       	out	0x3b, r0	; 59
     180:	0f 90       	pop	r0
     182:	0f be       	out	0x3f, r0	; 63
     184:	0f 90       	pop	r0
     186:	1f 90       	pop	r1
     188:	18 95       	reti

0000018a <SERVER_Task>:
	//delay_flag = -1;
}
void Say_Hello(void *arg)
{
	(void) arg;
	UART_SendString("Hello!\r\n");
     18a:	cf 93       	push	r28
     18c:	67 99       	sbic	0x0c, 7	; 12
     18e:	16 c0       	rjmp	.+44     	; 0x1bc <SERVER_Task+0x32>
     190:	80 91 08 01 	lds	r24, 0x0108	; 0x800108 <pin7state.2371>
     194:	88 23       	and	r24, r24
     196:	81 f0       	breq	.+32     	; 0x1b8 <SERVER_Task+0x2e>
     198:	80 91 28 03 	lds	r24, 0x0328	; 0x800328 <STAGE1>
     19c:	90 91 29 03 	lds	r25, 0x0329	; 0x800329 <STAGE1+0x1>
     1a0:	89 2b       	or	r24, r25
     1a2:	41 f4       	brne	.+16     	; 0x1b4 <SERVER_Task+0x2a>
     1a4:	80 91 04 03 	lds	r24, 0x0304	; 0x800304 <HEAD>
     1a8:	90 91 05 03 	lds	r25, 0x0305	; 0x800305 <HEAD+0x1>
     1ac:	90 93 29 03 	sts	0x0329, r25	; 0x800329 <STAGE1+0x1>
     1b0:	80 93 28 03 	sts	0x0328, r24	; 0x800328 <STAGE1>
     1b4:	10 92 23 03 	sts	0x0323, r1	; 0x800323 <g_WDTimeout>
     1b8:	10 92 08 01 	sts	0x0108, r1	; 0x800108 <pin7state.2371>
     1bc:	66 99       	sbic	0x0c, 6	; 12
     1be:	0e c0       	rjmp	.+28     	; 0x1dc <SERVER_Task+0x52>
     1c0:	80 91 07 01 	lds	r24, 0x0107	; 0x800107 <pin6state.2372>
     1c4:	88 23       	and	r24, r24
     1c6:	41 f0       	breq	.+16     	; 0x1d8 <SERVER_Task+0x4e>
     1c8:	62 e0       	ldi	r22, 0x02	; 2
     1ca:	80 91 72 03 	lds	r24, 0x0372	; 0x800372 <STAGE2>
     1ce:	90 91 73 03 	lds	r25, 0x0373	; 0x800373 <STAGE2+0x1>
     1d2:	7c d2       	rcall	.+1272   	; 0x6cc <LL_UpdateStatus>
     1d4:	10 92 23 03 	sts	0x0323, r1	; 0x800323 <g_WDTimeout>
     1d8:	10 92 07 01 	sts	0x0107, r1	; 0x800107 <pin6state.2372>
     1dc:	65 99       	sbic	0x0c, 5	; 12
     1de:	0b c0       	rjmp	.+22     	; 0x1f6 <SERVER_Task+0x6c>
     1e0:	80 91 06 01 	lds	r24, 0x0106	; 0x800106 <pin5state.2373>
     1e4:	88 23       	and	r24, r24
     1e6:	29 f0       	breq	.+10     	; 0x1f2 <SERVER_Task+0x68>
     1e8:	82 e0       	ldi	r24, 0x02	; 2
     1ea:	80 93 4d 03 	sts	0x034D, r24	; 0x80034d <_timer+0x23>
     1ee:	10 92 23 03 	sts	0x0323, r1	; 0x800323 <g_WDTimeout>
     1f2:	10 92 06 01 	sts	0x0106, r1	; 0x800106 <pin5state.2373>
     1f6:	67 9b       	sbis	0x0c, 7	; 12
     1f8:	0e c0       	rjmp	.+28     	; 0x216 <SERVER_Task+0x8c>
     1fa:	80 91 08 01 	lds	r24, 0x0108	; 0x800108 <pin7state.2371>
     1fe:	81 11       	cpse	r24, r1
     200:	07 c0       	rjmp	.+14     	; 0x210 <SERVER_Task+0x86>
     202:	ea e2       	ldi	r30, 0x2A	; 42
     204:	f3 e0       	ldi	r31, 0x03	; 3
     206:	82 e0       	ldi	r24, 0x02	; 2
     208:	82 8f       	std	Z+26, r24	; 0x1a
     20a:	84 a7       	std	Z+44, r24	; 0x2c
     20c:	80 93 71 03 	sts	0x0371, r24	; 0x800371 <_timer+0x47>
     210:	81 e0       	ldi	r24, 0x01	; 1
     212:	80 93 08 01 	sts	0x0108, r24	; 0x800108 <pin7state.2371>
     216:	66 9b       	sbis	0x0c, 6	; 12
     218:	2a c0       	rjmp	.+84     	; 0x26e <SERVER_Task+0xe4>
     21a:	80 91 07 01 	lds	r24, 0x0107	; 0x800107 <pin6state.2372>
     21e:	81 11       	cpse	r24, r1
     220:	23 c0       	rjmp	.+70     	; 0x268 <SERVER_Task+0xde>
     222:	80 91 72 03 	lds	r24, 0x0372	; 0x800372 <STAGE2>
     226:	90 91 73 03 	lds	r25, 0x0373	; 0x800373 <STAGE2+0x1>
     22a:	00 97       	sbiw	r24, 0x00	; 0
     22c:	71 f4       	brne	.+28     	; 0x24a <SERVER_Task+0xc0>
     22e:	80 91 04 03 	lds	r24, 0x0304	; 0x800304 <HEAD>
     232:	90 91 05 03 	lds	r25, 0x0305	; 0x800305 <HEAD+0x1>
     236:	90 93 73 03 	sts	0x0373, r25	; 0x800373 <STAGE2+0x1>
     23a:	80 93 72 03 	sts	0x0372, r24	; 0x800372 <STAGE2>
     23e:	60 91 21 03 	lds	r22, 0x0321	; 0x800321 <g_Timer>
     242:	70 91 22 03 	lds	r23, 0x0322	; 0x800322 <g_Timer+0x1>
     246:	4c d2       	rcall	.+1176   	; 0x6e0 <LL_UpdateTick>
     248:	0a c0       	rjmp	.+20     	; 0x25e <SERVER_Task+0xd4>
     24a:	fa d1       	rcall	.+1012   	; 0x640 <LL_Next>
     24c:	90 93 73 03 	sts	0x0373, r25	; 0x800373 <STAGE2+0x1>
     250:	80 93 72 03 	sts	0x0372, r24	; 0x800372 <STAGE2>
     254:	60 91 21 03 	lds	r22, 0x0321	; 0x800321 <g_Timer>
     258:	70 91 22 03 	lds	r23, 0x0322	; 0x800322 <g_Timer+0x1>
     25c:	41 d2       	rcall	.+1154   	; 0x6e0 <LL_UpdateTick>
     25e:	ea e7       	ldi	r30, 0x7A	; 122
     260:	f0 e0       	ldi	r31, 0x00	; 0
     262:	80 81       	ld	r24, Z
     264:	80 64       	ori	r24, 0x40	; 64
     266:	80 83       	st	Z, r24
     268:	81 e0       	ldi	r24, 0x01	; 1
     26a:	80 93 07 01 	sts	0x0107, r24	; 0x800107 <pin6state.2372>
     26e:	65 9b       	sbis	0x0c, 5	; 12
     270:	0f c0       	rjmp	.+30     	; 0x290 <SERVER_Task+0x106>
     272:	80 91 06 01 	lds	r24, 0x0106	; 0x800106 <pin5state.2373>
     276:	81 11       	cpse	r24, r1
     278:	08 c0       	rjmp	.+16     	; 0x28a <SERVER_Task+0x100>
     27a:	80 91 04 03 	lds	r24, 0x0304	; 0x800304 <HEAD>
     27e:	90 91 05 03 	lds	r25, 0x0305	; 0x800305 <HEAD+0x1>
     282:	04 d2       	rcall	.+1032   	; 0x68c <LL_GetClass>
     284:	85 30       	cpi	r24, 0x05	; 5
     286:	09 f4       	brne	.+2      	; 0x28a <SERVER_Task+0x100>
     288:	3e d6       	rcall	.+3196   	; 0xf06 <SYS_Rampdown>
     28a:	81 e0       	ldi	r24, 0x01	; 1
     28c:	80 93 06 01 	sts	0x0106, r24	; 0x800106 <pin5state.2373>
     290:	80 91 01 03 	lds	r24, 0x0301	; 0x800301 <memory.2374>
     294:	81 11       	cpse	r24, r1
     296:	2b c0       	rjmp	.+86     	; 0x2ee <SERVER_Task+0x164>
     298:	80 91 04 03 	lds	r24, 0x0304	; 0x800304 <HEAD>
     29c:	90 91 05 03 	lds	r25, 0x0305	; 0x800305 <HEAD+0x1>
     2a0:	f5 d1       	rcall	.+1002   	; 0x68c <LL_GetClass>
     2a2:	84 30       	cpi	r24, 0x04	; 4
     2a4:	21 f1       	breq	.+72     	; 0x2ee <SERVER_Task+0x164>
     2a6:	e0 91 04 03 	lds	r30, 0x0304	; 0x800304 <HEAD>
     2aa:	f0 91 05 03 	lds	r31, 0x0305	; 0x800305 <HEAD+0x1>
     2ae:	82 81       	ldd	r24, Z+2	; 0x02
     2b0:	93 81       	ldd	r25, Z+3	; 0x03
     2b2:	ec d1       	rcall	.+984    	; 0x68c <LL_GetClass>
     2b4:	84 30       	cpi	r24, 0x04	; 4
     2b6:	d9 f0       	breq	.+54     	; 0x2ee <SERVER_Task+0x164>
     2b8:	81 e0       	ldi	r24, 0x01	; 1
     2ba:	80 93 01 03 	sts	0x0301, r24	; 0x800301 <memory.2374>
     2be:	e0 91 04 03 	lds	r30, 0x0304	; 0x800304 <HEAD>
     2c2:	f0 91 05 03 	lds	r31, 0x0305	; 0x800305 <HEAD+0x1>
     2c6:	82 81       	ldd	r24, Z+2	; 0x02
     2c8:	93 81       	ldd	r25, Z+3	; 0x03
     2ca:	e0 d1       	rcall	.+960    	; 0x68c <LL_GetClass>
     2cc:	e8 2f       	mov	r30, r24
     2ce:	f0 e0       	ldi	r31, 0x00	; 0
     2d0:	e7 5f       	subi	r30, 0xF7	; 247
     2d2:	fe 4f       	sbci	r31, 0xFE	; 254
     2d4:	c0 81       	ld	r28, Z
     2d6:	80 91 04 03 	lds	r24, 0x0304	; 0x800304 <HEAD>
     2da:	90 91 05 03 	lds	r25, 0x0305	; 0x800305 <HEAD+0x1>
     2de:	d6 d1       	rcall	.+940    	; 0x68c <LL_GetClass>
     2e0:	e8 2f       	mov	r30, r24
     2e2:	f0 e0       	ldi	r31, 0x00	; 0
     2e4:	e7 5f       	subi	r30, 0xF7	; 247
     2e6:	fe 4f       	sbci	r31, 0xFE	; 254
     2e8:	80 81       	ld	r24, Z
     2ea:	6c 2f       	mov	r22, r28
     2ec:	5c d3       	rcall	.+1720   	; 0x9a6 <STEPPER_SetRotation>
     2ee:	cf 91       	pop	r28
     2f0:	08 95       	ret

000002f2 <ADC_Task>:
     2f2:	cf 92       	push	r12
     2f4:	df 92       	push	r13
     2f6:	ef 92       	push	r14
     2f8:	ff 92       	push	r15
     2fa:	cf 93       	push	r28
     2fc:	ea e0       	ldi	r30, 0x0A	; 10
     2fe:	f3 e0       	ldi	r31, 0x03	; 3
     300:	a0 81       	ld	r26, Z
     302:	b1 81       	ldd	r27, Z+1	; 0x01
     304:	60 81       	ld	r22, Z
     306:	71 81       	ldd	r23, Z+1	; 0x01
     308:	80 91 00 03 	lds	r24, 0x0300	; 0x800300 <ticks.2382>
     30c:	8f 5f       	subi	r24, 0xFF	; 255
     30e:	80 93 00 03 	sts	0x0300, r24	; 0x800300 <ticks.2382>
     312:	c1 2c       	mov	r12, r1
     314:	d1 2c       	mov	r13, r1
     316:	76 01       	movw	r14, r12
     318:	80 e0       	ldi	r24, 0x00	; 0
     31a:	90 e0       	ldi	r25, 0x00	; 0
     31c:	4f b7       	in	r20, 0x3f	; 63
     31e:	f8 94       	cli
     320:	fc 01       	movw	r30, r24
     322:	ee 0f       	add	r30, r30
     324:	ff 1f       	adc	r31, r31
     326:	e6 5f       	subi	r30, 0xF6	; 246
     328:	fc 4f       	sbci	r31, 0xFC	; 252
     32a:	20 81       	ld	r18, Z
     32c:	31 81       	ldd	r19, Z+1	; 0x01
     32e:	c2 0e       	add	r12, r18
     330:	d3 1e       	adc	r13, r19
     332:	e1 1c       	adc	r14, r1
     334:	f1 1c       	adc	r15, r1
     336:	20 81       	ld	r18, Z
     338:	31 81       	ldd	r19, Z+1	; 0x01
     33a:	26 17       	cp	r18, r22
     33c:	37 07       	cpc	r19, r23
     33e:	38 f4       	brcc	.+14     	; 0x34e <ADC_Task+0x5c>
     340:	fc 01       	movw	r30, r24
     342:	ee 0f       	add	r30, r30
     344:	ff 1f       	adc	r31, r31
     346:	e6 5f       	subi	r30, 0xF6	; 246
     348:	fc 4f       	sbci	r31, 0xFC	; 252
     34a:	60 81       	ld	r22, Z
     34c:	71 81       	ldd	r23, Z+1	; 0x01
     34e:	fc 01       	movw	r30, r24
     350:	ee 0f       	add	r30, r30
     352:	ff 1f       	adc	r31, r31
     354:	e6 5f       	subi	r30, 0xF6	; 246
     356:	fc 4f       	sbci	r31, 0xFC	; 252
     358:	20 81       	ld	r18, Z
     35a:	31 81       	ldd	r19, Z+1	; 0x01
     35c:	a2 17       	cp	r26, r18
     35e:	b3 07       	cpc	r27, r19
     360:	08 f0       	brcs	.+2      	; 0x364 <ADC_Task+0x72>
     362:	4d c0       	rjmp	.+154    	; 0x3fe <ADC_Task+0x10c>
     364:	fc 01       	movw	r30, r24
     366:	ee 0f       	add	r30, r30
     368:	ff 1f       	adc	r31, r31
     36a:	e6 5f       	subi	r30, 0xF6	; 246
     36c:	fc 4f       	sbci	r31, 0xFC	; 252
     36e:	a0 81       	ld	r26, Z
     370:	b1 81       	ldd	r27, Z+1	; 0x01
     372:	45 c0       	rjmp	.+138    	; 0x3fe <ADC_Task+0x10c>
     374:	8f b7       	in	r24, 0x3f	; 63
     376:	f8 94       	cli
     378:	ca 1a       	sub	r12, r26
     37a:	db 0a       	sbc	r13, r27
     37c:	e1 08       	sbc	r14, r1
     37e:	f1 08       	sbc	r15, r1
     380:	c6 1a       	sub	r12, r22
     382:	d7 0a       	sbc	r13, r23
     384:	e1 08       	sbc	r14, r1
     386:	f1 08       	sbc	r15, r1
     388:	f6 94       	lsr	r15
     38a:	e7 94       	ror	r14
     38c:	d7 94       	ror	r13
     38e:	c7 94       	ror	r12
     390:	f6 94       	lsr	r15
     392:	e7 94       	ror	r14
     394:	d7 94       	ror	r13
     396:	c7 94       	ror	r12
     398:	8f bf       	out	0x3f, r24	; 63
     39a:	cf b7       	in	r28, 0x3f	; 63
     39c:	f8 94       	cli
     39e:	d7 01       	movw	r26, r14
     3a0:	c6 01       	movw	r24, r12
     3a2:	0b 97       	sbiw	r24, 0x0b	; 11
     3a4:	a1 09       	sbc	r26, r1
     3a6:	b1 09       	sbc	r27, r1
     3a8:	8d 3d       	cpi	r24, 0xDD	; 221
     3aa:	93 40       	sbci	r25, 0x03	; 3
     3ac:	a1 05       	cpc	r26, r1
     3ae:	b1 05       	cpc	r27, r1
     3b0:	a0 f4       	brcc	.+40     	; 0x3da <ADC_Task+0xe8>
     3b2:	80 91 72 03 	lds	r24, 0x0372	; 0x800372 <STAGE2>
     3b6:	90 91 73 03 	lds	r25, 0x0373	; 0x800373 <STAGE2+0x1>
     3ba:	6d d1       	rcall	.+730    	; 0x696 <LL_GetRefl>
     3bc:	a0 e0       	ldi	r26, 0x00	; 0
     3be:	b0 e0       	ldi	r27, 0x00	; 0
     3c0:	c8 16       	cp	r12, r24
     3c2:	d9 06       	cpc	r13, r25
     3c4:	ea 06       	cpc	r14, r26
     3c6:	fb 06       	cpc	r15, r27
     3c8:	40 f4       	brcc	.+16     	; 0x3da <ADC_Task+0xe8>
     3ca:	80 91 72 03 	lds	r24, 0x0372	; 0x800372 <STAGE2>
     3ce:	90 91 73 03 	lds	r25, 0x0373	; 0x800373 <STAGE2+0x1>
     3d2:	00 97       	sbiw	r24, 0x00	; 0
     3d4:	11 f0       	breq	.+4      	; 0x3da <ADC_Task+0xe8>
     3d6:	b6 01       	movw	r22, r12
     3d8:	69 d1       	rcall	.+722    	; 0x6ac <LL_UpdateRefl>
     3da:	cf bf       	out	0x3f, r28	; 63
     3dc:	10 92 1f 03 	sts	0x031F, r1	; 0x80031f <g_ADCCount+0x1>
     3e0:	10 92 1e 03 	sts	0x031E, r1	; 0x80031e <g_ADCCount>
     3e4:	10 92 3b 03 	sts	0x033B, r1	; 0x80033b <_timer+0x11>
     3e8:	66 9b       	sbis	0x0c, 6	; 12
     3ea:	06 c0       	rjmp	.+12     	; 0x3f8 <ADC_Task+0x106>
     3ec:	ea e7       	ldi	r30, 0x7A	; 122
     3ee:	f0 e0       	ldi	r31, 0x00	; 0
     3f0:	80 81       	ld	r24, Z
     3f2:	80 64       	ori	r24, 0x40	; 64
     3f4:	80 83       	st	Z, r24
     3f6:	0a c0       	rjmp	.+20     	; 0x40c <__LOCK_REGION_LENGTH__+0xc>
     3f8:	10 92 00 03 	sts	0x0300, r1	; 0x800300 <ticks.2382>
     3fc:	07 c0       	rjmp	.+14     	; 0x40c <__LOCK_REGION_LENGTH__+0xc>
     3fe:	4f bf       	out	0x3f, r20	; 63
     400:	01 96       	adiw	r24, 0x01	; 1
     402:	86 30       	cpi	r24, 0x06	; 6
     404:	91 05       	cpc	r25, r1
     406:	09 f0       	breq	.+2      	; 0x40a <__LOCK_REGION_LENGTH__+0xa>
     408:	89 cf       	rjmp	.-238    	; 0x31c <ADC_Task+0x2a>
     40a:	b4 cf       	rjmp	.-152    	; 0x374 <ADC_Task+0x82>
     40c:	cf 91       	pop	r28
     40e:	ff 90       	pop	r15
     410:	ef 90       	pop	r14
     412:	df 90       	pop	r13
     414:	cf 90       	pop	r12
     416:	08 95       	ret

00000418 <MAG_Task>:
     418:	80 91 20 03 	lds	r24, 0x0320	; 0x800320 <g_MotorOn>
     41c:	88 23       	and	r24, r24
     41e:	29 f0       	breq	.+10     	; 0x42a <MAG_Task+0x12>
     420:	80 91 ff 02 	lds	r24, 0x02FF	; 0x8002ff <tick.2404>
     424:	8f 5f       	subi	r24, 0xFF	; 255
     426:	80 93 ff 02 	sts	0x02FF, r24	; 0x8002ff <tick.2404>
     42a:	64 99       	sbic	0x0c, 4	; 12
     42c:	1a c0       	rjmp	.+52     	; 0x462 <MAG_Task+0x4a>
     42e:	61 e0       	ldi	r22, 0x01	; 1
     430:	80 91 28 03 	lds	r24, 0x0328	; 0x800328 <STAGE1>
     434:	90 91 29 03 	lds	r25, 0x0329	; 0x800329 <STAGE1+0x1>
     438:	49 d1       	rcall	.+658    	; 0x6cc <LL_UpdateStatus>
     43a:	61 e0       	ldi	r22, 0x01	; 1
     43c:	80 91 28 03 	lds	r24, 0x0328	; 0x800328 <STAGE1>
     440:	90 91 29 03 	lds	r25, 0x0329	; 0x800329 <STAGE1+0x1>
     444:	39 d1       	rcall	.+626    	; 0x6b8 <LL_UpdateMag>
     446:	80 91 28 03 	lds	r24, 0x0328	; 0x800328 <STAGE1>
     44a:	90 91 29 03 	lds	r25, 0x0329	; 0x800329 <STAGE1+0x1>
     44e:	f8 d0       	rcall	.+496    	; 0x640 <LL_Next>
     450:	90 93 29 03 	sts	0x0329, r25	; 0x800329 <STAGE1+0x1>
     454:	80 93 28 03 	sts	0x0328, r24	; 0x800328 <STAGE1>
     458:	10 92 ff 02 	sts	0x02FF, r1	; 0x8002ff <tick.2404>
     45c:	10 92 44 03 	sts	0x0344, r1	; 0x800344 <_timer+0x1a>
     460:	08 95       	ret
     462:	80 91 ff 02 	lds	r24, 0x02FF	; 0x8002ff <tick.2404>
     466:	83 33       	cpi	r24, 0x33	; 51
     468:	c8 f0       	brcs	.+50     	; 0x49c <MAG_Task+0x84>
     46a:	61 e0       	ldi	r22, 0x01	; 1
     46c:	80 91 28 03 	lds	r24, 0x0328	; 0x800328 <STAGE1>
     470:	90 91 29 03 	lds	r25, 0x0329	; 0x800329 <STAGE1+0x1>
     474:	2b d1       	rcall	.+598    	; 0x6cc <LL_UpdateStatus>
     476:	60 e0       	ldi	r22, 0x00	; 0
     478:	80 91 28 03 	lds	r24, 0x0328	; 0x800328 <STAGE1>
     47c:	90 91 29 03 	lds	r25, 0x0329	; 0x800329 <STAGE1+0x1>
     480:	1b d1       	rcall	.+566    	; 0x6b8 <LL_UpdateMag>
     482:	80 91 28 03 	lds	r24, 0x0328	; 0x800328 <STAGE1>
     486:	90 91 29 03 	lds	r25, 0x0329	; 0x800329 <STAGE1+0x1>
     48a:	da d0       	rcall	.+436    	; 0x640 <LL_Next>
     48c:	90 93 29 03 	sts	0x0329, r25	; 0x800329 <STAGE1+0x1>
     490:	80 93 28 03 	sts	0x0328, r24	; 0x800328 <STAGE1>
     494:	10 92 ff 02 	sts	0x02FF, r1	; 0x8002ff <tick.2404>
     498:	10 92 44 03 	sts	0x0344, r1	; 0x800344 <_timer+0x1a>
     49c:	08 95       	ret

0000049e <EXIT_Task>:
     49e:	cf 93       	push	r28
     4a0:	e6 e7       	ldi	r30, 0x76	; 118
     4a2:	f3 e0       	ldi	r31, 0x03	; 3
     4a4:	85 81       	ldd	r24, Z+5	; 0x05
     4a6:	96 81       	ldd	r25, Z+6	; 0x06
     4a8:	27 81       	ldd	r18, Z+7	; 0x07
     4aa:	82 1b       	sub	r24, r18
     4ac:	91 09       	sbc	r25, r1
     4ae:	0f 97       	sbiw	r24, 0x0f	; 15
     4b0:	24 f4       	brge	.+8      	; 0x4ba <EXIT_Task+0x1c>
     4b2:	80 91 83 03 	lds	r24, 0x0383	; 0x800383 <stepper+0xd>
     4b6:	88 23       	and	r24, r24
     4b8:	79 f0       	breq	.+30     	; 0x4d8 <EXIT_Task+0x3a>
     4ba:	80 91 04 03 	lds	r24, 0x0304	; 0x800304 <HEAD>
     4be:	90 91 05 03 	lds	r25, 0x0305	; 0x800305 <HEAD+0x1>
     4c2:	e4 d0       	rcall	.+456    	; 0x68c <LL_GetClass>
     4c4:	c8 2f       	mov	r28, r24
     4c6:	e0 91 04 03 	lds	r30, 0x0304	; 0x800304 <HEAD>
     4ca:	f0 91 05 03 	lds	r31, 0x0305	; 0x800305 <HEAD+0x1>
     4ce:	82 81       	ldd	r24, Z+2	; 0x02
     4d0:	93 81       	ldd	r25, Z+3	; 0x03
     4d2:	dc d0       	rcall	.+440    	; 0x68c <LL_GetClass>
     4d4:	c8 13       	cpse	r28, r24
     4d6:	3f c0       	rjmp	.+126    	; 0x556 <EXIT_Task+0xb8>
     4d8:	63 e0       	ldi	r22, 0x03	; 3
     4da:	80 91 04 03 	lds	r24, 0x0304	; 0x800304 <HEAD>
     4de:	90 91 05 03 	lds	r25, 0x0305	; 0x800305 <HEAD+0x1>
     4e2:	f4 d0       	rcall	.+488    	; 0x6cc <LL_UpdateStatus>
     4e4:	80 91 04 03 	lds	r24, 0x0304	; 0x800304 <HEAD>
     4e8:	90 91 05 03 	lds	r25, 0x0305	; 0x800305 <HEAD+0x1>
     4ec:	a9 d0       	rcall	.+338    	; 0x640 <LL_Next>
     4ee:	90 93 05 03 	sts	0x0305, r25	; 0x800305 <HEAD+0x1>
     4f2:	80 93 04 03 	sts	0x0304, r24	; 0x800304 <HEAD>
     4f6:	ca d0       	rcall	.+404    	; 0x68c <LL_GetClass>
     4f8:	c8 2f       	mov	r28, r24
     4fa:	e0 91 04 03 	lds	r30, 0x0304	; 0x800304 <HEAD>
     4fe:	f0 91 05 03 	lds	r31, 0x0305	; 0x800305 <HEAD+0x1>
     502:	82 81       	ldd	r24, Z+2	; 0x02
     504:	93 81       	ldd	r25, Z+3	; 0x03
     506:	c2 d0       	rcall	.+388    	; 0x68c <LL_GetClass>
     508:	c8 13       	cpse	r28, r24
     50a:	04 c0       	rjmp	.+8      	; 0x514 <EXIT_Task+0x76>
     50c:	86 e9       	ldi	r24, 0x96	; 150
     50e:	80 93 0f 01 	sts	0x010F, r24	; 0x80010f <BELT_SPEED>
     512:	1b c0       	rjmp	.+54     	; 0x54a <EXIT_Task+0xac>
     514:	84 e6       	ldi	r24, 0x64	; 100
     516:	80 93 0f 01 	sts	0x010F, r24	; 0x80010f <BELT_SPEED>
     51a:	e0 91 04 03 	lds	r30, 0x0304	; 0x800304 <HEAD>
     51e:	f0 91 05 03 	lds	r31, 0x0305	; 0x800305 <HEAD+0x1>
     522:	82 81       	ldd	r24, Z+2	; 0x02
     524:	93 81       	ldd	r25, Z+3	; 0x03
     526:	b2 d0       	rcall	.+356    	; 0x68c <LL_GetClass>
     528:	e8 2f       	mov	r30, r24
     52a:	f0 e0       	ldi	r31, 0x00	; 0
     52c:	e7 5f       	subi	r30, 0xF7	; 247
     52e:	fe 4f       	sbci	r31, 0xFE	; 254
     530:	c0 81       	ld	r28, Z
     532:	80 91 04 03 	lds	r24, 0x0304	; 0x800304 <HEAD>
     536:	90 91 05 03 	lds	r25, 0x0305	; 0x800305 <HEAD+0x1>
     53a:	a8 d0       	rcall	.+336    	; 0x68c <LL_GetClass>
     53c:	e8 2f       	mov	r30, r24
     53e:	f0 e0       	ldi	r31, 0x00	; 0
     540:	e7 5f       	subi	r30, 0xF7	; 247
     542:	fe 4f       	sbci	r31, 0xFE	; 254
     544:	80 81       	ld	r24, Z
     546:	6c 2f       	mov	r22, r28
     548:	2e d2       	rcall	.+1116   	; 0x9a6 <STEPPER_SetRotation>
     54a:	81 e0       	ldi	r24, 0x01	; 1
     54c:	90 e0       	ldi	r25, 0x00	; 0
     54e:	9c d1       	rcall	.+824    	; 0x888 <PWM>
     550:	10 92 4d 03 	sts	0x034D, r1	; 0x80034d <_timer+0x23>
     554:	06 c0       	rjmp	.+12     	; 0x562 <EXIT_Task+0xc4>
     556:	80 e0       	ldi	r24, 0x00	; 0
     558:	90 e0       	ldi	r25, 0x00	; 0
     55a:	96 d1       	rcall	.+812    	; 0x888 <PWM>
     55c:	81 e0       	ldi	r24, 0x01	; 1
     55e:	80 93 74 03 	sts	0x0374, r24	; 0x800374 <g_Lock>
     562:	80 91 04 03 	lds	r24, 0x0304	; 0x800304 <HEAD>
     566:	90 91 05 03 	lds	r25, 0x0305	; 0x800305 <HEAD+0x1>
     56a:	90 d0       	rcall	.+288    	; 0x68c <LL_GetClass>
     56c:	cf 91       	pop	r28
     56e:	08 95       	ret

00000570 <BTN_Task>:
     570:	89 b1       	in	r24, 0x09	; 9
     572:	83 70       	andi	r24, 0x03	; 3
     574:	c1 f0       	breq	.+48     	; 0x5a6 <BTN_Task+0x36>
     576:	80 91 fe 02 	lds	r24, 0x02FE	; 0x8002fe <__data_end>
     57a:	8f 5f       	subi	r24, 0xFF	; 255
     57c:	80 93 fe 02 	sts	0x02FE, r24	; 0x8002fe <__data_end>
     580:	83 30       	cpi	r24, 0x03	; 3
     582:	98 f0       	brcs	.+38     	; 0x5aa <BTN_Task+0x3a>
     584:	89 b1       	in	r24, 0x09	; 9
     586:	83 70       	andi	r24, 0x03	; 3
     588:	81 f0       	breq	.+32     	; 0x5aa <BTN_Task+0x3a>
     58a:	89 b1       	in	r24, 0x09	; 9
     58c:	83 70       	andi	r24, 0x03	; 3
     58e:	81 30       	cpi	r24, 0x01	; 1
     590:	19 f4       	brne	.+6      	; 0x598 <BTN_Task+0x28>
     592:	80 93 75 03 	sts	0x0375, r24	; 0x800375 <g_PauseRequest>
     596:	08 95       	ret
     598:	89 b1       	in	r24, 0x09	; 9
     59a:	83 70       	andi	r24, 0x03	; 3
     59c:	82 30       	cpi	r24, 0x02	; 2
     59e:	29 f4       	brne	.+10     	; 0x5aa <BTN_Task+0x3a>
     5a0:	80 93 56 03 	sts	0x0356, r24	; 0x800356 <_timer+0x2c>
     5a4:	08 95       	ret
     5a6:	10 92 fe 02 	sts	0x02FE, r1	; 0x8002fe <__data_end>
     5aa:	08 95       	ret

000005ac <WATCHDOG_Task>:
     5ac:	80 91 23 03 	lds	r24, 0x0323	; 0x800323 <g_WDTimeout>
     5b0:	82 30       	cpi	r24, 0x02	; 2
     5b2:	18 f0       	brcs	.+6      	; 0x5ba <WATCHDOG_Task+0xe>
     5b4:	86 e1       	ldi	r24, 0x16	; 22
     5b6:	91 e0       	ldi	r25, 0x01	; 1
     5b8:	82 d3       	rcall	.+1796   	; 0xcbe <SYS_Pause>
     5ba:	80 91 23 03 	lds	r24, 0x0323	; 0x800323 <g_WDTimeout>
     5be:	8f 5f       	subi	r24, 0xFF	; 255
     5c0:	80 93 23 03 	sts	0x0323, r24	; 0x800323 <g_WDTimeout>
     5c4:	08 95       	ret

000005c6 <D_Blinky>:
     5c6:	9b b1       	in	r25, 0x0b	; 11
     5c8:	80 ea       	ldi	r24, 0xA0	; 160
     5ca:	89 27       	eor	r24, r25
     5cc:	8b b9       	out	0x0b, r24	; 11
     5ce:	08 95       	ret

000005d0 <ADD_Task>:
	/*! 
	* \brief 	Initialize a new item to the list
	*			Functionality moved to compile time
	* \param	Unused
	*/	
	if(g_MotorOn) g_Timer++;
     5d0:	80 91 20 03 	lds	r24, 0x0320	; 0x800320 <g_MotorOn>
     5d4:	88 23       	and	r24, r24
     5d6:	49 f0       	breq	.+18     	; 0x5ea <ADD_Task+0x1a>
     5d8:	80 91 21 03 	lds	r24, 0x0321	; 0x800321 <g_Timer>
     5dc:	90 91 22 03 	lds	r25, 0x0322	; 0x800322 <g_Timer+0x1>
     5e0:	01 96       	adiw	r24, 0x01	; 1
     5e2:	90 93 22 03 	sts	0x0322, r25	; 0x800322 <g_Timer+0x1>
     5e6:	80 93 21 03 	sts	0x0321, r24	; 0x800321 <g_Timer>
     5ea:	08 95       	ret

000005ec <LL_ItemInit>:
	return;
}
void LL_UpdatePeriodic(list* ref, uint8_t newPeriodic)
{
	//
	((timerNode*)ref->node)->periodic = newPeriodic;
     5ec:	ef 92       	push	r14
     5ee:	ff 92       	push	r15
     5f0:	1f 93       	push	r17
     5f2:	cf 93       	push	r28
     5f4:	df 93       	push	r29
     5f6:	7c 01       	movw	r14, r24
     5f8:	16 2f       	mov	r17, r22
     5fa:	d4 2f       	mov	r29, r20
     5fc:	c2 2f       	mov	r28, r18
     5fe:	87 e0       	ldi	r24, 0x07	; 7
     600:	90 e0       	ldi	r25, 0x00	; 0
     602:	f3 d5       	rcall	.+3046   	; 0x11ea <malloc>
     604:	fc 01       	movw	r30, r24
     606:	f1 82       	std	Z+1, r15	; 0x01
     608:	e0 82       	st	Z, r14
     60a:	12 83       	std	Z+2, r17	; 0x02
     60c:	d3 83       	std	Z+3, r29	; 0x03
     60e:	c4 83       	std	Z+4, r28	; 0x04
     610:	16 82       	std	Z+6, r1	; 0x06
     612:	15 82       	std	Z+5, r1	; 0x05
     614:	df 91       	pop	r29
     616:	cf 91       	pop	r28
     618:	1f 91       	pop	r17
     61a:	ff 90       	pop	r15
     61c:	ef 90       	pop	r14
     61e:	08 95       	ret

00000620 <LL_ItemListInit>:
     620:	cf 93       	push	r28
     622:	df 93       	push	r29
     624:	ec 01       	movw	r28, r24
     626:	86 e0       	ldi	r24, 0x06	; 6
     628:	90 e0       	ldi	r25, 0x00	; 0
     62a:	df d5       	rcall	.+3006   	; 0x11ea <malloc>
     62c:	fc 01       	movw	r30, r24
     62e:	d1 83       	std	Z+1, r29	; 0x01
     630:	c0 83       	st	Z, r28
     632:	15 82       	std	Z+5, r1	; 0x05
     634:	14 82       	std	Z+4, r1	; 0x04
     636:	13 82       	std	Z+3, r1	; 0x03
     638:	12 82       	std	Z+2, r1	; 0x02
     63a:	df 91       	pop	r29
     63c:	cf 91       	pop	r28
     63e:	08 95       	ret

00000640 <LL_Next>:
     640:	fc 01       	movw	r30, r24
     642:	82 81       	ldd	r24, Z+2	; 0x02
     644:	93 81       	ldd	r25, Z+3	; 0x03
     646:	08 95       	ret

00000648 <LL_AddBack>:
     648:	cf 93       	push	r28
     64a:	df 93       	push	r29
     64c:	ec 01       	movw	r28, r24
     64e:	cb 01       	movw	r24, r22
     650:	01 c0       	rjmp	.+2      	; 0x654 <LL_AddBack+0xc>
     652:	e9 01       	movw	r28, r18
     654:	2a 81       	ldd	r18, Y+2	; 0x02
     656:	3b 81       	ldd	r19, Y+3	; 0x03
     658:	21 15       	cp	r18, r1
     65a:	31 05       	cpc	r19, r1
     65c:	d1 f7       	brne	.-12     	; 0x652 <LL_AddBack+0xa>
     65e:	e0 df       	rcall	.-64     	; 0x620 <LL_ItemListInit>
     660:	9b 83       	std	Y+3, r25	; 0x03
     662:	8a 83       	std	Y+2, r24	; 0x02
     664:	df 91       	pop	r29
     666:	cf 91       	pop	r28
     668:	08 95       	ret

0000066a <LL_Size>:
     66a:	dc 01       	movw	r26, r24
     66c:	12 96       	adiw	r26, 0x02	; 2
     66e:	ed 91       	ld	r30, X+
     670:	fc 91       	ld	r31, X
     672:	13 97       	sbiw	r26, 0x03	; 3
     674:	30 97       	sbiw	r30, 0x00	; 0
     676:	41 f0       	breq	.+16     	; 0x688 <LL_Size+0x1e>
     678:	81 e0       	ldi	r24, 0x01	; 1
     67a:	8f 5f       	subi	r24, 0xFF	; 255
     67c:	02 80       	ldd	r0, Z+2	; 0x02
     67e:	f3 81       	ldd	r31, Z+3	; 0x03
     680:	e0 2d       	mov	r30, r0
     682:	30 97       	sbiw	r30, 0x00	; 0
     684:	d1 f7       	brne	.-12     	; 0x67a <LL_Size+0x10>
     686:	08 95       	ret
     688:	81 e0       	ldi	r24, 0x01	; 1
     68a:	08 95       	ret

0000068c <LL_GetClass>:
     68c:	dc 01       	movw	r26, r24
     68e:	ed 91       	ld	r30, X+
     690:	fc 91       	ld	r31, X
     692:	83 81       	ldd	r24, Z+3	; 0x03
     694:	08 95       	ret

00000696 <LL_GetRefl>:
     696:	dc 01       	movw	r26, r24
     698:	ed 91       	ld	r30, X+
     69a:	fc 91       	ld	r31, X
     69c:	80 81       	ld	r24, Z
     69e:	91 81       	ldd	r25, Z+1	; 0x01
     6a0:	08 95       	ret

000006a2 <LL_GetMag>:
     6a2:	dc 01       	movw	r26, r24
     6a4:	ed 91       	ld	r30, X+
     6a6:	fc 91       	ld	r31, X
     6a8:	82 81       	ldd	r24, Z+2	; 0x02
     6aa:	08 95       	ret

000006ac <LL_UpdateRefl>:
     6ac:	dc 01       	movw	r26, r24
     6ae:	ed 91       	ld	r30, X+
     6b0:	fc 91       	ld	r31, X
     6b2:	71 83       	std	Z+1, r23	; 0x01
     6b4:	60 83       	st	Z, r22
     6b6:	08 95       	ret

000006b8 <LL_UpdateMag>:
     6b8:	dc 01       	movw	r26, r24
     6ba:	ed 91       	ld	r30, X+
     6bc:	fc 91       	ld	r31, X
     6be:	62 83       	std	Z+2, r22	; 0x02
     6c0:	08 95       	ret

000006c2 <LL_UpdateClass>:
     6c2:	dc 01       	movw	r26, r24
     6c4:	ed 91       	ld	r30, X+
     6c6:	fc 91       	ld	r31, X
     6c8:	63 83       	std	Z+3, r22	; 0x03
     6ca:	08 95       	ret

000006cc <LL_UpdateStatus>:
	return;
}
void LL_UpdateStatus(list* ref, estatus newStatus)
{
	//
	((itemNode*)ref->node)->status = newStatus;
     6cc:	dc 01       	movw	r26, r24
     6ce:	ed 91       	ld	r30, X+
     6d0:	fc 91       	ld	r31, X
     6d2:	64 83       	std	Z+4, r22	; 0x04
     6d4:	08 95       	ret

000006d6 <LL_GetStatus>:
}

estatus LL_GetStatus(list* ref)
{
	//
	return ((itemNode*)ref->node)->status;
     6d6:	dc 01       	movw	r26, r24
     6d8:	ed 91       	ld	r30, X+
     6da:	fc 91       	ld	r31, X
}
     6dc:	84 81       	ldd	r24, Z+4	; 0x04
     6de:	08 95       	ret

000006e0 <LL_UpdateTick>:

void LL_UpdateTick(list* ref, uint16_t newTick)
{
	//
	((itemNode*)ref->node)->lastTick = newTick;
     6e0:	dc 01       	movw	r26, r24
     6e2:	ed 91       	ld	r30, X+
     6e4:	fc 91       	ld	r31, X
     6e6:	76 83       	std	Z+6, r23	; 0x06
     6e8:	65 83       	std	Z+5, r22	; 0x05
     6ea:	08 95       	ret

000006ec <LL_GetTick>:
}

uint16_t LL_GetTick(list* ref)
{
	//
	return ((itemNode*)ref->node)->lastTick;
     6ec:	dc 01       	movw	r26, r24
     6ee:	ed 91       	ld	r30, X+
     6f0:	fc 91       	ld	r31, X
     6f2:	85 81       	ldd	r24, Z+5	; 0x05
     6f4:	96 81       	ldd	r25, Z+6	; 0x06
     6f6:	08 95       	ret

000006f8 <GPIO_Init>:
/*-----------------------------------------------------------*/

int GPIO_Init(void)
{

    DDRA = 0xFF;  // Sets all pins on Port A to output
     6f8:	8f ef       	ldi	r24, 0xFF	; 255
     6fa:	81 b9       	out	0x01, r24	; 1
    DDRB = 0xFF;  // Sets all pins on Port B to output for PWM [7]
     6fc:	84 b9       	out	0x04, r24	; 4
    DDRC = 0xFF;  // Sets all pins on port C to output for LEDS
     6fe:	87 b9       	out	0x07, r24	; 7
    DDRD = 0xF0;  // Sets all pins on port D to input for buttons
     700:	80 ef       	ldi	r24, 0xF0	; 240
     702:	8a b9       	out	0x0a, r24	; 10
	DDRE = 0x00;
     704:	1d b8       	out	0x0d, r1	; 13
    DDRF = 0x00;  // Sets all pins on Port F to input for ADC
     706:	10 ba       	out	0x10, r1	; 16
// 			| (1 << ISC51));				// 03 Falling
// 			
// 	EIMSK |= ((1 << INT7) | (1 << INT6) | (1 << INT5));

    return 0;
} // GPIO_Init
     708:	80 e0       	ldi	r24, 0x00	; 0
     70a:	90 e0       	ldi	r25, 0x00	; 0
     70c:	08 95       	ret

0000070e <main>:
	CALIBRATE();
	return 0;
#endif
	
	// Initialize the system
	SYS_Init();
     70e:	57 d2       	rcall	.+1198   	; 0xbbe <SYS_Init>

	// Wait for start signal
	while(1)
	{
		if((PIND & 0x03) == 0x00) // Both Buttons
     710:	89 b1       	in	r24, 0x09	; 9
     712:	83 70       	andi	r24, 0x03	; 3
     714:	e9 f7       	brne	.-6      	; 0x710 <main+0x2>
		{
			UART_SendString("Starting System!\r\n");
     716:	84 e2       	ldi	r24, 0x24	; 36
     718:	91 e0       	ldi	r25, 0x01	; 1
     71a:	59 d5       	rcall	.+2738   	; 0x11ce <UART_SendString>
    return 1;
}

static __inline__ uint8_t __iCliRetVal(void)
{
    cli();
     71c:	f8 94       	cli
	}
	
	// Start tasks and enable interrupts
	ATOMIC_BLOCK(ATOMIC_FORCEON)
	{
		TIMER_Create(1, 1, SERVER_Task, NULL);		// Optical Handling
     71e:	20 e0       	ldi	r18, 0x00	; 0
     720:	30 e0       	ldi	r19, 0x00	; 0
     722:	45 ec       	ldi	r20, 0xC5	; 197
     724:	50 e0       	ldi	r21, 0x00	; 0
     726:	61 e0       	ldi	r22, 0x01	; 1
     728:	70 e0       	ldi	r23, 0x00	; 0
     72a:	81 e0       	ldi	r24, 0x01	; 1
     72c:	90 e0       	ldi	r25, 0x00	; 0
     72e:	d6 d4       	rcall	.+2476   	; 0x10dc <TIMER_Create>
		_timer[0].state = READY;
     730:	ca e2       	ldi	r28, 0x2A	; 42
     732:	d3 e0       	ldi	r29, 0x03	; 3
     734:	12 e0       	ldi	r17, 0x02	; 2
     736:	18 87       	std	Y+8, r17	; 0x08
		
		TIMER_Create(1, 1, ADC_Task, NULL);			// ADC Handler
     738:	20 e0       	ldi	r18, 0x00	; 0
     73a:	30 e0       	ldi	r19, 0x00	; 0
     73c:	49 e7       	ldi	r20, 0x79	; 121
     73e:	51 e0       	ldi	r21, 0x01	; 1
     740:	61 e0       	ldi	r22, 0x01	; 1
     742:	70 e0       	ldi	r23, 0x00	; 0
     744:	81 e0       	ldi	r24, 0x01	; 1
     746:	90 e0       	ldi	r25, 0x00	; 0
     748:	c9 d4       	rcall	.+2450   	; 0x10dc <TIMER_Create>
		_timer[1].state = BLOCKED;
     74a:	19 8a       	std	Y+17, r1	; 0x11
		
		TIMER_Create(1, 1, MAG_Task, NULL);			// Magnetic Sensor Handler
     74c:	20 e0       	ldi	r18, 0x00	; 0
     74e:	30 e0       	ldi	r19, 0x00	; 0
     750:	4c e0       	ldi	r20, 0x0C	; 12
     752:	52 e0       	ldi	r21, 0x02	; 2
     754:	61 e0       	ldi	r22, 0x01	; 1
     756:	70 e0       	ldi	r23, 0x00	; 0
     758:	81 e0       	ldi	r24, 0x01	; 1
     75a:	90 e0       	ldi	r25, 0x00	; 0
     75c:	bf d4       	rcall	.+2430   	; 0x10dc <TIMER_Create>
		_timer[2].state = BLOCKED;
     75e:	1a 8e       	std	Y+26, r1	; 0x1a
		
		TIMER_Create(1, 1, EXIT_Task, NULL);		// Item Exit Handling
     760:	20 e0       	ldi	r18, 0x00	; 0
     762:	30 e0       	ldi	r19, 0x00	; 0
     764:	4f e4       	ldi	r20, 0x4F	; 79
     766:	52 e0       	ldi	r21, 0x02	; 2
     768:	61 e0       	ldi	r22, 0x01	; 1
     76a:	70 e0       	ldi	r23, 0x00	; 0
     76c:	81 e0       	ldi	r24, 0x01	; 1
     76e:	90 e0       	ldi	r25, 0x00	; 0
     770:	b5 d4       	rcall	.+2410   	; 0x10dc <TIMER_Create>
		_timer[3].state = BLOCKED;
     772:	1b a2       	std	Y+35, r1	; 0x23
		
		TIMER_Create(2, 1, ADD_Task, NULL);		// Item Enter Handling
     774:	20 e0       	ldi	r18, 0x00	; 0
     776:	30 e0       	ldi	r19, 0x00	; 0
     778:	48 ee       	ldi	r20, 0xE8	; 232
     77a:	52 e0       	ldi	r21, 0x02	; 2
     77c:	61 e0       	ldi	r22, 0x01	; 1
     77e:	70 e0       	ldi	r23, 0x00	; 0
     780:	82 e0       	ldi	r24, 0x02	; 2
     782:	90 e0       	ldi	r25, 0x00	; 0
     784:	ab d4       	rcall	.+2390   	; 0x10dc <TIMER_Create>
		_timer[4].state = BLOCKED;
     786:	1c a6       	std	Y+44, r1	; 0x2c
		
		TIMER_Create(100, 1, BTN_Task, NULL);		// Button Handling
     788:	20 e0       	ldi	r18, 0x00	; 0
     78a:	30 e0       	ldi	r19, 0x00	; 0
     78c:	48 eb       	ldi	r20, 0xB8	; 184
     78e:	52 e0       	ldi	r21, 0x02	; 2
     790:	61 e0       	ldi	r22, 0x01	; 1
     792:	70 e0       	ldi	r23, 0x00	; 0
     794:	84 e6       	ldi	r24, 0x64	; 100
     796:	90 e0       	ldi	r25, 0x00	; 0
     798:	a1 d4       	rcall	.+2370   	; 0x10dc <TIMER_Create>
		_timer[5].state = READY;
     79a:	1d ab       	std	Y+53, r17	; 0x35
		
		TIMER_Create(2000, 1, D_Blinky, NULL);		// Blinky Leds
     79c:	20 e0       	ldi	r18, 0x00	; 0
     79e:	30 e0       	ldi	r19, 0x00	; 0
     7a0:	43 ee       	ldi	r20, 0xE3	; 227
     7a2:	52 e0       	ldi	r21, 0x02	; 2
     7a4:	61 e0       	ldi	r22, 0x01	; 1
     7a6:	70 e0       	ldi	r23, 0x00	; 0
     7a8:	80 ed       	ldi	r24, 0xD0	; 208
     7aa:	97 e0       	ldi	r25, 0x07	; 7
     7ac:	97 d4       	rcall	.+2350   	; 0x10dc <TIMER_Create>
		_timer[6].state = READY;					

		TIMER_Create(5000, 1, WATCHDOG_Task, NULL); // For Rampdown or system stalls
     7ae:	1e af       	std	Y+62, r17	; 0x3e
     7b0:	20 e0       	ldi	r18, 0x00	; 0
     7b2:	30 e0       	ldi	r19, 0x00	; 0
     7b4:	46 ed       	ldi	r20, 0xD6	; 214
     7b6:	52 e0       	ldi	r21, 0x02	; 2
     7b8:	61 e0       	ldi	r22, 0x01	; 1
     7ba:	70 e0       	ldi	r23, 0x00	; 0
     7bc:	88 e8       	ldi	r24, 0x88	; 136
		_timer[7].state = BLOCKED;
     7be:	93 e1       	ldi	r25, 0x13	; 19
     7c0:	8d d4       	rcall	.+2330   	; 0x10dc <TIMER_Create>

		UART_SendString("System Ready...\r\n");
     7c2:	10 92 71 03 	sts	0x0371, r1	; 0x800371 <_timer+0x47>
     7c6:	87 e3       	ldi	r24, 0x37	; 55
		PWM(0x80);
     7c8:	91 e0       	ldi	r25, 0x01	; 1
     7ca:	01 d5       	rcall	.+2562   	; 0x11ce <UART_SendString>
     7cc:	80 e8       	ldi	r24, 0x80	; 128
     7ce:	90 e0       	ldi	r25, 0x00	; 0
    return 1;
}

static __inline__ void __iSeiParam(const uint8_t *__s)
{
    sei();
     7d0:	5b d0       	rcall	.+182    	; 0x888 <PWM>
	static volatile uint8_t position[6] = {100, 0, 50, 150, 100, 100};
	// Put IDLE operations in infinite loop
	while (1)
	{	
		// Check for pause request	
		if(g_PauseRequest) SYS_Pause(__FUNCTION__);
     7d2:	78 94       	sei
     7d4:	80 91 75 03 	lds	r24, 0x0375	; 0x800375 <g_PauseRequest>
     7d8:	88 23       	and	r24, r24
     7da:	19 f0       	breq	.+6      	; 0x7e2 <main+0xd4>
     7dc:	89 e4       	ldi	r24, 0x49	; 73
     7de:	91 e0       	ldi	r25, 0x01	; 1
// 		{
// 			// Item Missing
// 			SYS_Pause("!!!Item Missing!!!\r\n");
// 		}

		list* temp = HEAD;
     7e0:	6e d2       	rcall	.+1244   	; 0xcbe <SYS_Pause>
     7e2:	c0 91 04 03 	lds	r28, 0x0304	; 0x800304 <HEAD>
		uint16_t reflVal; 
		
		while(temp)
     7e6:	d0 91 05 03 	lds	r29, 0x0305	; 0x800305 <HEAD+0x1>
		{
			// Classify any sortable nodes
			if(temp && (LL_GetClass(temp) == UNCLASSIFIED) && (LL_GetStatus(temp) == SORTABLE))
     7ea:	20 97       	sbiw	r28, 0x00	; 0
     7ec:	99 f3       	breq	.-26     	; 0x7d4 <main+0xc6>
     7ee:	20 97       	sbiw	r28, 0x00	; 0
     7f0:	91 f1       	breq	.+100    	; 0x856 <main+0x148>
     7f2:	ce 01       	movw	r24, r28
     7f4:	4b df       	rcall	.-362    	; 0x68c <LL_GetClass>
     7f6:	84 30       	cpi	r24, 0x04	; 4
     7f8:	71 f5       	brne	.+92     	; 0x856 <main+0x148>
     7fa:	ce 01       	movw	r24, r28
			{
	
				reflVal = LL_GetRefl(temp);				
     7fc:	6c df       	rcall	.-296    	; 0x6d6 <LL_GetStatus>
     7fe:	82 30       	cpi	r24, 0x02	; 2
     800:	51 f5       	brne	.+84     	; 0x856 <main+0x148>
     802:	ce 01       	movw	r24, r28
				uint8_t magVal = LL_GetMag(temp);
     804:	48 df       	rcall	.-368    	; 0x696 <LL_GetRefl>
     806:	8c 01       	movw	r16, r24
     808:	ce 01       	movw	r24, r28
				
				if(magVal) // 
     80a:	4b df       	rcall	.-362    	; 0x6a2 <LL_GetMag>
				{
					if((reflVal >= ALUMINUM_BOUNDARY_LOW) && (reflVal <= ALUMINUM_BOUNDARY_HIGH))
     80c:	88 23       	and	r24, r24
     80e:	91 f0       	breq	.+36     	; 0x834 <main+0x126>
     810:	c8 01       	movw	r24, r16
     812:	44 97       	sbiw	r24, 0x14	; 20
     814:	81 35       	cpi	r24, 0x51	; 81
					{
						LL_UpdateClass(temp, ALUMINUM);
     816:	91 05       	cpc	r25, r1
     818:	20 f4       	brcc	.+8      	; 0x822 <main+0x114>
     81a:	62 e0       	ldi	r22, 0x02	; 2
     81c:	ce 01       	movw	r24, r28
					}
					else if ((reflVal >= STEEL_BOUNDARY_LOW) && (reflVal <= STEEL_BOUNDARY_HIGH))
     81e:	51 df       	rcall	.-350    	; 0x6c2 <LL_UpdateClass>
     820:	1a c0       	rjmp	.+52     	; 0x856 <main+0x148>
     822:	04 56       	subi	r16, 0x64	; 100
     824:	11 09       	sbc	r17, r1
     826:	07 32       	cpi	r16, 0x27	; 39
					{
						LL_UpdateClass(temp, STEEL);
     828:	12 40       	sbci	r17, 0x02	; 2
     82a:	a8 f4       	brcc	.+42     	; 0x856 <main+0x148>
     82c:	63 e0       	ldi	r22, 0x03	; 3
     82e:	ce 01       	movw	r24, r28
					else
					{
						// Unknown Magnetic Object
					}
				}
				else if((reflVal >= WHITE_BOUNDARY_LOW) && (reflVal <= WHITE_BOUNDARY_HIGH))
     830:	48 df       	rcall	.-368    	; 0x6c2 <LL_UpdateClass>
     832:	11 c0       	rjmp	.+34     	; 0x856 <main+0x148>
     834:	c8 01       	movw	r24, r16
     836:	89 58       	subi	r24, 0x89	; 137
     838:	93 40       	sbci	r25, 0x03	; 3
				{
					LL_UpdateClass(temp, WHITE);
     83a:	0b 97       	sbiw	r24, 0x0b	; 11
     83c:	20 f4       	brcc	.+8      	; 0x846 <main+0x138>
     83e:	60 e0       	ldi	r22, 0x00	; 0
     840:	ce 01       	movw	r24, r28
     842:	3f df       	rcall	.-386    	; 0x6c2 <LL_UpdateClass>
				}
				else if((reflVal >= BLACK_BOUNDARY_LOW) && (reflVal <= BLACK_BOUNDARY_HIGH))
     844:	08 c0       	rjmp	.+16     	; 0x856 <main+0x148>
     846:	00 52       	subi	r16, 0x20	; 32
     848:	13 40       	sbci	r17, 0x03	; 3
     84a:	07 39       	cpi	r16, 0x97	; 151
     84c:	11 05       	cpc	r17, r1
				{
					LL_UpdateClass(temp, BLACK);
     84e:	18 f4       	brcc	.+6      	; 0x856 <main+0x148>
     850:	61 e0       	ldi	r22, 0x01	; 1
     852:	ce 01       	movw	r24, r28
     854:	36 df       	rcall	.-404    	; 0x6c2 <LL_UpdateClass>
// 					{
// 						LL_UpdateClass(temp, ALUMINUM);
// 					}
				}
			}
			temp = LL_Next(temp);
     856:	ce 01       	movw	r24, r28
     858:	f3 de       	rcall	.-538    	; 0x640 <LL_Next>
     85a:	ec 01       	movw	r28, r24
     85c:	89 2b       	or	r24, r25
// 		}

		list* temp = HEAD;
		uint16_t reflVal; 
		
		while(temp)
     85e:	09 f0       	breq	.+2      	; 0x862 <main+0x154>
     860:	c6 cf       	rjmp	.-116    	; 0x7ee <main+0xe0>
     862:	b8 cf       	rjmp	.-144    	; 0x7d4 <main+0xc6>

00000864 <__vector_default>:
     864:	1f 92       	push	r1
	return 0;
}

// Catch bad isrs
ISR(BADISR_vect)
{
     866:	0f 92       	push	r0
     868:	0f b6       	in	r0, 0x3f	; 63
     86a:	0f 92       	push	r0
     86c:	11 24       	eor	r1, r1
	while(1)
	{
		PORTC = 0xAA;
     86e:	8a ea       	ldi	r24, 0xAA	; 170
     870:	88 b9       	out	0x08, r24	; 8
     872:	fe cf       	rjmp	.-4      	; 0x870 <__vector_default+0xc>

00000874 <PWM_Init>:
/*-----------------------------------------------------------*/

void PWM_Init()
{
    // Set Waveform Generation Mode to 3 - Fast PWM with TOP = MAX, and OCRA = Compare value
    TCCR0A |= 0x83; // TCCR0A7:6 -> COM0A = 0b10	(inverted mode)
     874:	84 b5       	in	r24, 0x24	; 36
     876:	83 68       	ori	r24, 0x83	; 131
     878:	84 bd       	out	0x24, r24	; 36
                    // TCCR0A1:0 -> WGM1:0 = 11		(Fast PWM)
    // Set Clock Source
    TCCR0B |= 0x03; // CS2:0 = 0b010 (prescaler = 8 for f_PWM = 488 Hz)
     87a:	85 b5       	in	r24, 0x25	; 37
     87c:	83 60       	ori	r24, 0x03	; 3
     87e:	85 bd       	out	0x25, r24	; 37
    // Set value we want timer to reset at (MAX)
    OCR0A = BELT_SPEED; // Sets PWM duty cycle = 50%
     880:	80 91 0f 01 	lds	r24, 0x010F	; 0x80010f <BELT_SPEED>
     884:	87 bd       	out	0x27, r24	; 39
     886:	08 95       	ret

00000888 <PWM>:
} // PWM_Init

void PWM(const int dutyCycle)
{
     888:	9c 01       	movw	r18, r24
	ATOMIC_BLOCK(ATOMIC_RESTORESTATE)
     88a:	9f b7       	in	r25, 0x3f	; 63
    return 1;
}

static __inline__ uint8_t __iCliRetVal(void)
{
    cli();
     88c:	f8 94       	cli
	{
		OCR0A = BELT_SPEED;
     88e:	80 91 0f 01 	lds	r24, 0x010F	; 0x80010f <BELT_SPEED>
     892:	87 bd       	out	0x27, r24	; 39
		if (dutyCycle) 
     894:	23 2b       	or	r18, r19
     896:	31 f0       	breq	.+12     	; 0x8a4 <PWM+0x1c>
		{
			g_MotorOn = 1;
     898:	81 e0       	ldi	r24, 0x01	; 1
     89a:	80 93 20 03 	sts	0x0320, r24	; 0x800320 <g_MotorOn>
			PORTB = ~0x0E;
     89e:	81 ef       	ldi	r24, 0xF1	; 241
     8a0:	85 b9       	out	0x05, r24	; 5
     8a2:	04 c0       	rjmp	.+8      	; 0x8ac <PWM+0x24>
		}
		else 
		{
			g_MotorOn = 0;
     8a4:	10 92 20 03 	sts	0x0320, r1	; 0x800320 <g_MotorOn>
			PORTB = ~0x0F;
     8a8:	80 ef       	ldi	r24, 0xF0	; 240
     8aa:	85 b9       	out	0x05, r24	; 5
    (void)__s;
}

static __inline__ void __iRestore(const  uint8_t *__s)
{
    SREG = *__s;
     8ac:	9f bf       	out	0x3f, r25	; 63
    __asm__ volatile ("" ::: "memory");
     8ae:	08 95       	ret

000008b0 <STEPPER_Init>:
extern list* HEAD;
//TODO; Write spin down

void STEPPER_Init()
{
	cli();
     8b0:	f8 94       	cli
	// Initialize Stepper Parameters
	stepper._stepNum = 0;
     8b2:	e6 e7       	ldi	r30, 0x76	; 118
     8b4:	f3 e0       	ldi	r31, 0x03	; 3
     8b6:	10 82       	st	Z, r1
	stepper.direction = 1;
     8b8:	81 e0       	ldi	r24, 0x01	; 1
     8ba:	81 83       	std	Z+1, r24	; 0x01
	stepper.target = 0;
     8bc:	13 82       	std	Z+3, r1	; 0x03
     8be:	12 82       	std	Z+2, r1	; 0x02
	stepper.current = 0;
     8c0:	14 82       	std	Z+4, r1	; 0x04
	stepper._currentStep = 0;
     8c2:	17 82       	std	Z+7, r1	; 0x07
	stepper.next = 0;
     8c4:	11 86       	std	Z+9, r1	; 0x09
     8c6:	10 86       	std	Z+8, r1	; 0x08
	stepper._isInitiated = 0;
     8c8:	13 86       	std	Z+11, r1	; 0x0b
	stepper._accellStep = 0;
     8ca:	14 86       	std	Z+12, r1	; 0x0c
	stepper._willContinue = 0;
     8cc:	12 86       	std	Z+10, r1	; 0x0a

	// For calibration
	stepper._targetStep = 200;
     8ce:	88 ec       	ldi	r24, 0xC8	; 200
     8d0:	90 e0       	ldi	r25, 0x00	; 0
     8d2:	96 83       	std	Z+6, r25	; 0x06
     8d4:	85 83       	std	Z+5, r24	; 0x05

	PORTA = 0x30;
     8d6:	80 e3       	ldi	r24, 0x30	; 48
     8d8:	82 b9       	out	0x02, r24	; 2

	//Initial delay of 20ms
	OCR2A = 0x94;
     8da:	84 e9       	ldi	r24, 0x94	; 148
     8dc:	80 93 b3 00 	sts	0x00B3, r24	; 0x8000b3 <__TEXT_REGION_LENGTH__+0x7e00b3>
	// Set to CTC Mode
	TCCR2A |= (1 << WGM21);
     8e0:	e0 eb       	ldi	r30, 0xB0	; 176
     8e2:	f0 e0       	ldi	r31, 0x00	; 0
     8e4:	80 81       	ld	r24, Z
     8e6:	82 60       	ori	r24, 0x02	; 2
     8e8:	80 83       	st	Z, r24
	//Set interrupt on compare match
	TIMSK2 |= (1 << OCIE2A);
     8ea:	e0 e7       	ldi	r30, 0x70	; 112
     8ec:	f0 e0       	ldi	r31, 0x00	; 0
     8ee:	80 81       	ld	r24, Z
     8f0:	82 60       	ori	r24, 0x02	; 2
     8f2:	80 83       	st	Z, r24
	// set prescaler to 1024 and starts PWM
	TCCR2B |= ((1 << CS22) | (1 << CS21) | (1 << CS20));
     8f4:	e1 eb       	ldi	r30, 0xB1	; 177
     8f6:	f0 e0       	ldi	r31, 0x00	; 0
     8f8:	80 81       	ld	r24, Z
     8fa:	87 60       	ori	r24, 0x07	; 7
     8fc:	80 83       	st	Z, r24
	// set prescaler to 256 and starts PWM
	//TCCR2B |= ((1 << CS22) | (1 << CS21));

	// Enable Interrupts to calibrate
	sei();
     8fe:	78 94       	sei
     900:	08 95       	ret

00000902 <STEPPER_NumSteps>:
} // STEPPER_Init

int STEPPER_NumSteps(uint8_t target, uint8_t current)
{
	int steps = (target - current);
     902:	90 e0       	ldi	r25, 0x00	; 0
     904:	86 1b       	sub	r24, r22
     906:	91 09       	sbc	r25, r1
	if (steps >= 0)
     908:	52 f0       	brmi	.+20     	; 0x91e <STEPPER_NumSteps+0x1c>
	{
		//if there are a positive number of steps > 180; subtract 180 and rotate the other way
		steps = (steps > TURN_180) ? (-1) * (steps - TURN_180) : (steps);
     90a:	85 36       	cpi	r24, 0x65	; 101
     90c:	91 05       	cpc	r25, r1
     90e:	8c f0       	brlt	.+34     	; 0x932 <STEPPER_NumSteps+0x30>
     910:	24 e6       	ldi	r18, 0x64	; 100
     912:	30 e0       	ldi	r19, 0x00	; 0
     914:	a9 01       	movw	r20, r18
     916:	48 1b       	sub	r20, r24
     918:	59 0b       	sbc	r21, r25
     91a:	ca 01       	movw	r24, r20
     91c:	08 95       	ret
	}
	else
	{
		//if there are a negative number of steps < 180; add 180 and rotate the other way
		steps = (steps < (-1 * TURN_180)) ? (-1) * (steps + TURN_180) : (steps);
     91e:	8c 39       	cpi	r24, 0x9C	; 156
     920:	5f ef       	ldi	r21, 0xFF	; 255
     922:	95 07       	cpc	r25, r21
     924:	34 f4       	brge	.+12     	; 0x932 <STEPPER_NumSteps+0x30>
     926:	2c e9       	ldi	r18, 0x9C	; 156
     928:	3f ef       	ldi	r19, 0xFF	; 255
     92a:	a9 01       	movw	r20, r18
     92c:	48 1b       	sub	r20, r24
     92e:	59 0b       	sbc	r21, r25
     930:	ca 01       	movw	r24, r20
	}
	return steps;
} // STEPPER_NumSteps
     932:	08 95       	ret

00000934 <STEPPER_Rotate>:

void STEPPER_Rotate()
{
     934:	cf 93       	push	r28
     936:	df 93       	push	r29
	//Steps and direction to position
	stepper._targetStep = STEPPER_NumSteps(stepper.target, stepper.current);
     938:	c6 e7       	ldi	r28, 0x76	; 118
     93a:	d3 e0       	ldi	r29, 0x03	; 3
     93c:	6c 81       	ldd	r22, Y+4	; 0x04
     93e:	8a 81       	ldd	r24, Y+2	; 0x02
     940:	9b 81       	ldd	r25, Y+3	; 0x03
     942:	df df       	rcall	.-66     	; 0x902 <STEPPER_NumSteps>
     944:	9e 83       	std	Y+6, r25	; 0x06
     946:	8d 83       	std	Y+5, r24	; 0x05
	//Steps and direction to next position
	int nextSteps = STEPPER_NumSteps(stepper.next, stepper.target);
     948:	6a 81       	ldd	r22, Y+2	; 0x02
     94a:	7b 81       	ldd	r23, Y+3	; 0x03
     94c:	88 85       	ldd	r24, Y+8	; 0x08
     94e:	99 85       	ldd	r25, Y+9	; 0x09
     950:	d8 df       	rcall	.-80     	; 0x902 <STEPPER_NumSteps>
	//Determine rotation direction
	stepper.direction = (stepper._targetStep >= 0) ? CW : CCW;
     952:	2d 81       	ldd	r18, Y+5	; 0x05
     954:	3e 81       	ldd	r19, Y+6	; 0x06
     956:	33 23       	and	r19, r19
     958:	14 f4       	brge	.+4      	; 0x95e <STEPPER_Rotate+0x2a>
     95a:	28 e0       	ldi	r18, 0x08	; 8
     95c:	01 c0       	rjmp	.+2      	; 0x960 <STEPPER_Rotate+0x2c>
     95e:	24 e0       	ldi	r18, 0x04	; 4
     960:	e6 e7       	ldi	r30, 0x76	; 118
     962:	f3 e0       	ldi	r31, 0x03	; 3
     964:	21 83       	std	Z+1, r18	; 0x01
	//Determine if the Next target will require a stop or not
	stepper._willContinue = (stepper._targetStep * nextSteps > 0) ? 1 : 0;
     966:	45 81       	ldd	r20, Z+5	; 0x05
     968:	56 81       	ldd	r21, Z+6	; 0x06
     96a:	84 9f       	mul	r24, r20
     96c:	90 01       	movw	r18, r0
     96e:	85 9f       	mul	r24, r21
     970:	30 0d       	add	r19, r0
     972:	94 9f       	mul	r25, r20
     974:	30 0d       	add	r19, r0
     976:	11 24       	eor	r1, r1
     978:	81 e0       	ldi	r24, 0x01	; 1
     97a:	12 16       	cp	r1, r18
     97c:	13 06       	cpc	r1, r19
     97e:	0c f0       	brlt	.+2      	; 0x982 <STEPPER_Rotate+0x4e>
     980:	80 e0       	ldi	r24, 0x00	; 0
     982:	e6 e7       	ldi	r30, 0x76	; 118
     984:	f3 e0       	ldi	r31, 0x03	; 3
     986:	82 87       	std	Z+10, r24	; 0x0a

	//stepper can not take -ve numbers of steps
	stepper._targetStep = abs(stepper._targetStep);
     988:	85 81       	ldd	r24, Z+5	; 0x05
     98a:	96 81       	ldd	r25, Z+6	; 0x06
     98c:	99 23       	and	r25, r25
     98e:	1c f4       	brge	.+6      	; 0x996 <STEPPER_Rotate+0x62>
     990:	91 95       	neg	r25
     992:	81 95       	neg	r24
     994:	91 09       	sbc	r25, r1
     996:	e6 e7       	ldi	r30, 0x76	; 118
     998:	f3 e0       	ldi	r31, 0x03	; 3
     99a:	96 83       	std	Z+6, r25	; 0x06
     99c:	85 83       	std	Z+5, r24	; 0x05
	stepper._currentStep = 0;
     99e:	17 82       	std	Z+7, r1	; 0x07
} // STEPPER_Rotate
     9a0:	df 91       	pop	r29
     9a2:	cf 91       	pop	r28
     9a4:	08 95       	ret

000009a6 <STEPPER_SetRotation>:

void STEPPER_SetRotation(uint8_t target, uint8_t next)
{
	//Use this function to set the target
	if(stepper.current != stepper.target)
     9a6:	e6 e7       	ldi	r30, 0x76	; 118
     9a8:	f3 e0       	ldi	r31, 0x03	; 3
     9aa:	24 81       	ldd	r18, Z+4	; 0x04
     9ac:	42 81       	ldd	r20, Z+2	; 0x02
     9ae:	53 81       	ldd	r21, Z+3	; 0x03
     9b0:	30 e0       	ldi	r19, 0x00	; 0
     9b2:	24 17       	cp	r18, r20
     9b4:	35 07       	cpc	r19, r21
     9b6:	29 f0       	breq	.+10     	; 0x9c2 <STEPPER_SetRotation+0x1c>
	{
		stepper.early = 1;
     9b8:	91 e0       	ldi	r25, 0x01	; 1
     9ba:	95 87       	std	Z+13, r25	; 0x0d
		stepper.earlytarget = target;
     9bc:	86 87       	std	Z+14, r24	; 0x0e
		stepper.earlynext = next;
     9be:	67 87       	std	Z+15, r22	; 0x0f
     9c0:	08 95       	ret
	}
	else
	{
		stepper.target = target;
     9c2:	90 e0       	ldi	r25, 0x00	; 0
     9c4:	e6 e7       	ldi	r30, 0x76	; 118
     9c6:	f3 e0       	ldi	r31, 0x03	; 3
     9c8:	93 83       	std	Z+3, r25	; 0x03
     9ca:	82 83       	std	Z+2, r24	; 0x02
		stepper.next = next;
     9cc:	70 e0       	ldi	r23, 0x00	; 0
     9ce:	71 87       	std	Z+9, r23	; 0x09
     9d0:	60 87       	std	Z+8, r22	; 0x08
		STEPPER_Rotate();
     9d2:	b0 cf       	rjmp	.-160    	; 0x934 <STEPPER_Rotate>
     9d4:	08 95       	ret

000009d6 <__vector_13>:
	}
}

ISR(TIMER2_COMPA_vect)
{
     9d6:	1f 92       	push	r1
     9d8:	0f 92       	push	r0
     9da:	0f b6       	in	r0, 0x3f	; 63
     9dc:	0f 92       	push	r0
     9de:	11 24       	eor	r1, r1
     9e0:	0b b6       	in	r0, 0x3b	; 59
     9e2:	0f 92       	push	r0
     9e4:	2f 93       	push	r18
     9e6:	3f 93       	push	r19
     9e8:	4f 93       	push	r20
     9ea:	5f 93       	push	r21
     9ec:	6f 93       	push	r22
     9ee:	7f 93       	push	r23
     9f0:	8f 93       	push	r24
     9f2:	9f 93       	push	r25
     9f4:	af 93       	push	r26
     9f6:	bf 93       	push	r27
     9f8:	ef 93       	push	r30
     9fa:	ff 93       	push	r31
     9fc:	cf 93       	push	r28
     9fe:	df 93       	push	r29
     a00:	00 d0       	rcall	.+0      	; 0xa02 <__vector_13+0x2c>
     a02:	00 d0       	rcall	.+0      	; 0xa04 <__vector_13+0x2e>
     a04:	cd b7       	in	r28, 0x3d	; 61
     a06:	de b7       	in	r29, 0x3e	; 62
	volatile uint8_t step[4] = {0x36, 0x2E, 0x2D, 0x35};
     a08:	86 e3       	ldi	r24, 0x36	; 54
     a0a:	90 e0       	ldi	r25, 0x00	; 0
     a0c:	a0 e0       	ldi	r26, 0x00	; 0
     a0e:	b0 e0       	ldi	r27, 0x00	; 0
     a10:	9e e2       	ldi	r25, 0x2E	; 46
     a12:	ad e2       	ldi	r26, 0x2D	; 45
     a14:	b5 e3       	ldi	r27, 0x35	; 53
     a16:	89 83       	std	Y+1, r24	; 0x01
     a18:	9a 83       	std	Y+2, r25	; 0x02
     a1a:	ab 83       	std	Y+3, r26	; 0x03
     a1c:	bc 83       	std	Y+4, r27	; 0x04
	if (stepper._currentStep == stepper._targetStep)
     a1e:	e6 e7       	ldi	r30, 0x76	; 118
     a20:	f3 e0       	ldi	r31, 0x03	; 3
     a22:	87 81       	ldd	r24, Z+7	; 0x07
     a24:	25 81       	ldd	r18, Z+5	; 0x05
     a26:	36 81       	ldd	r19, Z+6	; 0x06
     a28:	90 e0       	ldi	r25, 0x00	; 0
     a2a:	82 17       	cp	r24, r18
     a2c:	93 07       	cpc	r25, r19
     a2e:	f9 f4       	brne	.+62     	; 0xa6e <__vector_13+0x98>
	{

		g_ItemInRange = 0;
     a30:	10 92 26 03 	sts	0x0326, r1	; 0x800326 <g_ItemInRange>
		//if you are at the target, don't rotate any farther and adjust the current position
		stepper.current = stepper.target;
     a34:	82 81       	ldd	r24, Z+2	; 0x02
     a36:	93 81       	ldd	r25, Z+3	; 0x03
     a38:	84 83       	std	Z+4, r24	; 0x04
		if(stepper.early)
     a3a:	85 85       	ldd	r24, Z+13	; 0x0d
     a3c:	88 23       	and	r24, r24
     a3e:	21 f0       	breq	.+8      	; 0xa48 <__vector_13+0x72>
		{
			stepper.early = 0;
     a40:	15 86       	std	Z+13, r1	; 0x0d
			STEPPER_SetRotation(stepper.earlytarget, stepper.earlynext);
     a42:	67 85       	ldd	r22, Z+15	; 0x0f
     a44:	86 85       	ldd	r24, Z+14	; 0x0e
     a46:	af df       	rcall	.-162    	; 0x9a6 <STEPPER_SetRotation>
		}
		//if the direction is changing reset the delay
		stepper._accellStep = (stepper._willContinue) ? stepper._accellStep : 0;
     a48:	80 91 80 03 	lds	r24, 0x0380	; 0x800380 <stepper+0xa>
     a4c:	88 23       	and	r24, r24
     a4e:	19 f0       	breq	.+6      	; 0xa56 <__vector_13+0x80>
     a50:	80 91 82 03 	lds	r24, 0x0382	; 0x800382 <stepper+0xc>
     a54:	01 c0       	rjmp	.+2      	; 0xa58 <__vector_13+0x82>
     a56:	80 e0       	ldi	r24, 0x00	; 0
     a58:	e6 e7       	ldi	r30, 0x76	; 118
     a5a:	f3 e0       	ldi	r31, 0x03	; 3
     a5c:	84 87       	std	Z+12, r24	; 0x0c
		OCR2A = accell[stepper._accellStep];
     a5e:	e4 85       	ldd	r30, Z+12	; 0x0c
     a60:	f0 e0       	ldi	r31, 0x00	; 0
     a62:	e0 5f       	subi	r30, 0xF0	; 240
     a64:	fe 4f       	sbci	r31, 0xFE	; 254
     a66:	80 81       	ld	r24, Z
     a68:	80 93 b3 00 	sts	0x00B3, r24	; 0x8000b3 <__TEXT_REGION_LENGTH__+0x7e00b3>
     a6c:	66 c0       	rjmp	.+204    	; 0xb3a <__vector_13+0x164>

	}
	else if (stepper._currentStep <= stepper._targetStep)
     a6e:	e6 e7       	ldi	r30, 0x76	; 118
     a70:	f3 e0       	ldi	r31, 0x03	; 3
     a72:	87 81       	ldd	r24, Z+7	; 0x07
     a74:	25 81       	ldd	r18, Z+5	; 0x05
     a76:	36 81       	ldd	r19, Z+6	; 0x06
     a78:	90 e0       	ldi	r25, 0x00	; 0
     a7a:	28 17       	cp	r18, r24
     a7c:	39 07       	cpc	r19, r25
     a7e:	0c f4       	brge	.+2      	; 0xa82 <__vector_13+0xac>
     a80:	5c c0       	rjmp	.+184    	; 0xb3a <__vector_13+0x164>
	{
		//if your not at the target fire the motor
		PORTA = (stepper.direction == CW) ? (step[stepper._stepNum]) : (step[3 - stepper._stepNum]);
     a82:	80 91 77 03 	lds	r24, 0x0377	; 0x800377 <stepper+0x1>
     a86:	84 30       	cpi	r24, 0x04	; 4
     a88:	51 f4       	brne	.+20     	; 0xa9e <__vector_13+0xc8>
     a8a:	80 91 76 03 	lds	r24, 0x0376	; 0x800376 <stepper>
     a8e:	e1 e0       	ldi	r30, 0x01	; 1
     a90:	f0 e0       	ldi	r31, 0x00	; 0
     a92:	ec 0f       	add	r30, r28
     a94:	fd 1f       	adc	r31, r29
     a96:	e8 0f       	add	r30, r24
     a98:	f1 1d       	adc	r31, r1
     a9a:	80 81       	ld	r24, Z
     a9c:	0d c0       	rjmp	.+26     	; 0xab8 <__vector_13+0xe2>
     a9e:	80 91 76 03 	lds	r24, 0x0376	; 0x800376 <stepper>
     aa2:	e3 e0       	ldi	r30, 0x03	; 3
     aa4:	f0 e0       	ldi	r31, 0x00	; 0
     aa6:	e8 1b       	sub	r30, r24
     aa8:	f1 09       	sbc	r31, r1
     aaa:	81 e0       	ldi	r24, 0x01	; 1
     aac:	90 e0       	ldi	r25, 0x00	; 0
     aae:	8c 0f       	add	r24, r28
     ab0:	9d 1f       	adc	r25, r29
     ab2:	e8 0f       	add	r30, r24
     ab4:	f9 1f       	adc	r31, r25
     ab6:	80 81       	ld	r24, Z
     ab8:	82 b9       	out	0x02, r24	; 2
		stepper._stepNum = (stepper._stepNum == 3) ? 0 : (stepper._stepNum + 1);
     aba:	80 91 76 03 	lds	r24, 0x0376	; 0x800376 <stepper>
     abe:	83 30       	cpi	r24, 0x03	; 3
     ac0:	21 f0       	breq	.+8      	; 0xaca <__vector_13+0xf4>
     ac2:	80 91 76 03 	lds	r24, 0x0376	; 0x800376 <stepper>
     ac6:	8f 5f       	subi	r24, 0xFF	; 255
     ac8:	01 c0       	rjmp	.+2      	; 0xacc <__vector_13+0xf6>
     aca:	80 e0       	ldi	r24, 0x00	; 0
     acc:	e6 e7       	ldi	r30, 0x76	; 118
     ace:	f3 e0       	ldi	r31, 0x03	; 3
     ad0:	80 83       	st	Z, r24

		stepper._currentStep++;
     ad2:	87 81       	ldd	r24, Z+7	; 0x07
     ad4:	8f 5f       	subi	r24, 0xFF	; 255
     ad6:	87 83       	std	Z+7, r24	; 0x07
		//Simple acceleration / deceleration block uses curve defined in accel
		if (((stepper._willContinue == 0) && (stepper._targetStep - stepper._currentStep) <= 5) && (accell[stepper._accellStep] < 0x94))
     ad8:	82 85       	ldd	r24, Z+10	; 0x0a
     ada:	81 11       	cpse	r24, r1
     adc:	15 c0       	rjmp	.+42     	; 0xb08 <__vector_13+0x132>
     ade:	85 81       	ldd	r24, Z+5	; 0x05
     ae0:	96 81       	ldd	r25, Z+6	; 0x06
     ae2:	27 81       	ldd	r18, Z+7	; 0x07
     ae4:	82 1b       	sub	r24, r18
     ae6:	91 09       	sbc	r25, r1
     ae8:	06 97       	sbiw	r24, 0x06	; 6
     aea:	74 f4       	brge	.+28     	; 0xb08 <__vector_13+0x132>
     aec:	e0 91 82 03 	lds	r30, 0x0382	; 0x800382 <stepper+0xc>
     af0:	f0 e0       	ldi	r31, 0x00	; 0
     af2:	e0 5f       	subi	r30, 0xF0	; 240
     af4:	fe 4f       	sbci	r31, 0xFE	; 254
     af6:	80 81       	ld	r24, Z
     af8:	84 39       	cpi	r24, 0x94	; 148
     afa:	30 f4       	brcc	.+12     	; 0xb08 <__vector_13+0x132>
		{
			stepper._accellStep--;
     afc:	e6 e7       	ldi	r30, 0x76	; 118
     afe:	f3 e0       	ldi	r31, 0x03	; 3
     b00:	84 85       	ldd	r24, Z+12	; 0x0c
     b02:	81 50       	subi	r24, 0x01	; 1
     b04:	84 87       	std	Z+12, r24	; 0x0c
     b06:	11 c0       	rjmp	.+34     	; 0xb2a <__vector_13+0x154>
		}
		else if ((stepper._currentStep > 5) && (accell[stepper._accellStep] > 0x40))
     b08:	80 91 7d 03 	lds	r24, 0x037D	; 0x80037d <stepper+0x7>
     b0c:	86 30       	cpi	r24, 0x06	; 6
     b0e:	68 f0       	brcs	.+26     	; 0xb2a <__vector_13+0x154>
     b10:	e0 91 82 03 	lds	r30, 0x0382	; 0x800382 <stepper+0xc>
     b14:	f0 e0       	ldi	r31, 0x00	; 0
     b16:	e0 5f       	subi	r30, 0xF0	; 240
     b18:	fe 4f       	sbci	r31, 0xFE	; 254
     b1a:	80 81       	ld	r24, Z
     b1c:	81 34       	cpi	r24, 0x41	; 65
     b1e:	28 f0       	brcs	.+10     	; 0xb2a <__vector_13+0x154>
		{
			stepper._accellStep++;
     b20:	e6 e7       	ldi	r30, 0x76	; 118
     b22:	f3 e0       	ldi	r31, 0x03	; 3
     b24:	84 85       	ldd	r24, Z+12	; 0x0c
     b26:	8f 5f       	subi	r24, 0xFF	; 255
     b28:	84 87       	std	Z+12, r24	; 0x0c
		}
		OCR2A = accell[stepper._accellStep];
     b2a:	e0 91 82 03 	lds	r30, 0x0382	; 0x800382 <stepper+0xc>
     b2e:	f0 e0       	ldi	r31, 0x00	; 0
     b30:	e0 5f       	subi	r30, 0xF0	; 240
     b32:	fe 4f       	sbci	r31, 0xFE	; 254
     b34:	80 81       	ld	r24, Z
     b36:	80 93 b3 00 	sts	0x00B3, r24	; 0x8000b3 <__TEXT_REGION_LENGTH__+0x7e00b3>
	}
	if (stepper._isInitiated != 1)
     b3a:	80 91 81 03 	lds	r24, 0x0381	; 0x800381 <stepper+0xb>
     b3e:	81 30       	cpi	r24, 0x01	; 1
     b40:	29 f1       	breq	.+74     	; 0xb8c <__vector_13+0x1b6>
	{
		if ((PINE & 0x08) == 0)
     b42:	63 99       	sbic	0x0c, 3	; 12
     b44:	04 c0       	rjmp	.+8      	; 0xb4e <__vector_13+0x178>
		{			
			stepper._isInitiated = STEPPER_OFFSET;
     b46:	80 91 4e 01 	lds	r24, 0x014E	; 0x80014e <STEPPER_OFFSET>
     b4a:	80 93 81 03 	sts	0x0381, r24	; 0x800381 <stepper+0xb>
		}
		if (stepper._isInitiated > 1) stepper._isInitiated--;
     b4e:	80 91 81 03 	lds	r24, 0x0381	; 0x800381 <stepper+0xb>
     b52:	82 30       	cpi	r24, 0x02	; 2
     b54:	28 f0       	brcs	.+10     	; 0xb60 <__vector_13+0x18a>
     b56:	e6 e7       	ldi	r30, 0x76	; 118
     b58:	f3 e0       	ldi	r31, 0x03	; 3
     b5a:	83 85       	ldd	r24, Z+11	; 0x0b
     b5c:	81 50       	subi	r24, 0x01	; 1
     b5e:	83 87       	std	Z+11, r24	; 0x0b
		if (stepper._isInitiated == 1)
     b60:	80 91 81 03 	lds	r24, 0x0381	; 0x800381 <stepper+0xb>
     b64:	81 30       	cpi	r24, 0x01	; 1
     b66:	91 f4       	brne	.+36     	; 0xb8c <__vector_13+0x1b6>
		{
			stepper._isInitiated = 1;
     b68:	e6 e7       	ldi	r30, 0x76	; 118
     b6a:	f3 e0       	ldi	r31, 0x03	; 3
     b6c:	83 87       	std	Z+11, r24	; 0x0b
			stepper._stepNum = 0;
     b6e:	10 82       	st	Z, r1
			stepper.direction = 1;
     b70:	81 83       	std	Z+1, r24	; 0x01
			stepper.target = 0;
     b72:	13 82       	std	Z+3, r1	; 0x03
     b74:	12 82       	std	Z+2, r1	; 0x02
			stepper.current = 0;
     b76:	14 82       	std	Z+4, r1	; 0x04
			stepper._targetStep = 0;
     b78:	16 82       	std	Z+6, r1	; 0x06
     b7a:	15 82       	std	Z+5, r1	; 0x05
			stepper._currentStep = 0;
     b7c:	17 82       	std	Z+7, r1	; 0x07
			stepper.next = 0;
     b7e:	11 86       	std	Z+9, r1	; 0x09
     b80:	10 86       	std	Z+8, r1	; 0x08
			stepper._willContinue = 0;
     b82:	12 86       	std	Z+10, r1	; 0x0a
			stepper._accellStep = 0;
     b84:	14 86       	std	Z+12, r1	; 0x0c
			stepper.early = 0;
     b86:	15 86       	std	Z+13, r1	; 0x0d
			stepper.earlynext = 0;
     b88:	17 86       	std	Z+15, r1	; 0x0f
			stepper.earlytarget = 0;
     b8a:	16 86       	std	Z+14, r1	; 0x0e
		}
	}
     b8c:	0f 90       	pop	r0
     b8e:	0f 90       	pop	r0
     b90:	0f 90       	pop	r0
     b92:	0f 90       	pop	r0
     b94:	df 91       	pop	r29
     b96:	cf 91       	pop	r28
     b98:	ff 91       	pop	r31
     b9a:	ef 91       	pop	r30
     b9c:	bf 91       	pop	r27
     b9e:	af 91       	pop	r26
     ba0:	9f 91       	pop	r25
     ba2:	8f 91       	pop	r24
     ba4:	7f 91       	pop	r23
     ba6:	6f 91       	pop	r22
     ba8:	5f 91       	pop	r21
     baa:	4f 91       	pop	r20
     bac:	3f 91       	pop	r19
     bae:	2f 91       	pop	r18
     bb0:	0f 90       	pop	r0
     bb2:	0b be       	out	0x3b, r0	; 59
     bb4:	0f 90       	pop	r0
     bb6:	0f be       	out	0x3f, r0	; 63
     bb8:	0f 90       	pop	r0
     bba:	1f 90       	pop	r1
     bbc:	18 95       	reti

00000bbe <SYS_Init>:
			sei();
			break;
		}
	}
	return;
} // SYS_Calibrate
     bbe:	0f 93       	push	r16
     bc0:	1f 93       	push	r17
     bc2:	cf 93       	push	r28
     bc4:	f8 94       	cli
     bc6:	e1 e6       	ldi	r30, 0x61	; 97
     bc8:	f0 e0       	ldi	r31, 0x00	; 0
     bca:	80 e8       	ldi	r24, 0x80	; 128
     bcc:	80 83       	st	Z, r24
     bce:	10 82       	st	Z, r1
     bd0:	e6 d2       	rcall	.+1484   	; 0x119e <UART_Init>
     bd2:	92 dd       	rcall	.-1244   	; 0x6f8 <GPIO_Init>
     bd4:	69 d2       	rcall	.+1234   	; 0x10a8 <TIMER_Init>
     bd6:	4e de       	rcall	.-868    	; 0x874 <PWM_Init>
     bd8:	7e da       	rcall	.-2820   	; 0xd6 <ADC_Init>
     bda:	6a de       	rcall	.-812    	; 0x8b0 <STEPPER_Init>
     bdc:	10 92 1f 03 	sts	0x031F, r1	; 0x80031f <g_ADCCount+0x1>
     be0:	10 92 1e 03 	sts	0x031E, r1	; 0x80031e <g_ADCCount>
     be4:	84 e1       	ldi	r24, 0x14	; 20
     be6:	ea e0       	ldi	r30, 0x0A	; 10
     be8:	f3 e0       	ldi	r31, 0x03	; 3
     bea:	df 01       	movw	r26, r30
     bec:	1d 92       	st	X+, r1
     bee:	8a 95       	dec	r24
     bf0:	e9 f7       	brne	.-6      	; 0xbec <SYS_Init+0x2e>
     bf2:	10 92 75 03 	sts	0x0375, r1	; 0x800375 <g_PauseRequest>
     bf6:	10 92 23 03 	sts	0x0323, r1	; 0x800323 <g_WDTimeout>
     bfa:	10 92 22 03 	sts	0x0322, r1	; 0x800322 <g_Timer+0x1>
     bfe:	10 92 21 03 	sts	0x0321, r1	; 0x800321 <g_Timer>
     c02:	10 92 74 03 	sts	0x0374, r1	; 0x800374 <g_Lock>
     c06:	10 92 26 03 	sts	0x0326, r1	; 0x800326 <g_ItemInRange>
     c0a:	10 92 05 03 	sts	0x0305, r1	; 0x800305 <HEAD+0x1>
     c0e:	10 92 04 03 	sts	0x0304, r1	; 0x800304 <HEAD>
     c12:	10 92 09 03 	sts	0x0309, r1	; 0x800309 <TAIL+0x1>
     c16:	10 92 08 03 	sts	0x0308, r1	; 0x800308 <TAIL>
     c1a:	10 92 29 03 	sts	0x0329, r1	; 0x800329 <STAGE1+0x1>
     c1e:	10 92 28 03 	sts	0x0328, r1	; 0x800328 <STAGE1>
     c22:	10 92 73 03 	sts	0x0373, r1	; 0x800373 <STAGE2+0x1>
     c26:	10 92 72 03 	sts	0x0372, r1	; 0x800372 <STAGE2>
     c2a:	10 92 07 03 	sts	0x0307, r1	; 0x800307 <FRONT+0x1>
     c2e:	10 92 06 03 	sts	0x0306, r1	; 0x800306 <FRONT>
     c32:	10 92 25 03 	sts	0x0325, r1	; 0x800325 <BUFFER+0x1>
     c36:	10 92 24 03 	sts	0x0324, r1	; 0x800324 <BUFFER>
     c3a:	20 e0       	ldi	r18, 0x00	; 0
     c3c:	44 e0       	ldi	r20, 0x04	; 4
     c3e:	6f ef       	ldi	r22, 0xFF	; 255
     c40:	89 ee       	ldi	r24, 0xE9	; 233
     c42:	9d ef       	ldi	r25, 0xFD	; 253
     c44:	d3 dc       	rcall	.-1626   	; 0x5ec <LL_ItemInit>
     c46:	ec dc       	rcall	.-1576   	; 0x620 <LL_ItemListInit>
     c48:	90 93 05 03 	sts	0x0305, r25	; 0x800305 <HEAD+0x1>
     c4c:	80 93 04 03 	sts	0x0304, r24	; 0x800304 <HEAD>
     c50:	90 93 07 03 	sts	0x0307, r25	; 0x800307 <FRONT+0x1>
     c54:	80 93 06 03 	sts	0x0306, r24	; 0x800306 <FRONT>
     c58:	90 93 25 03 	sts	0x0325, r25	; 0x800325 <BUFFER+0x1>
     c5c:	80 93 24 03 	sts	0x0324, r24	; 0x800324 <BUFFER>
     c60:	ca ef       	ldi	r28, 0xFA	; 250
     c62:	08 ee       	ldi	r16, 0xE8	; 232
     c64:	1d ef       	ldi	r17, 0xFD	; 253
     c66:	20 e0       	ldi	r18, 0x00	; 0
     c68:	44 e0       	ldi	r20, 0x04	; 4
     c6a:	6c 2f       	mov	r22, r28
     c6c:	c8 01       	movw	r24, r16
     c6e:	be dc       	rcall	.-1668   	; 0x5ec <LL_ItemInit>
     c70:	bc 01       	movw	r22, r24
     c72:	80 91 04 03 	lds	r24, 0x0304	; 0x800304 <HEAD>
     c76:	90 91 05 03 	lds	r25, 0x0305	; 0x800305 <HEAD+0x1>
     c7a:	e6 dc       	rcall	.-1588   	; 0x648 <LL_AddBack>
     c7c:	90 93 09 03 	sts	0x0309, r25	; 0x800309 <TAIL+0x1>
     c80:	80 93 08 03 	sts	0x0308, r24	; 0x800308 <TAIL>
     c84:	01 50       	subi	r16, 0x01	; 1
     c86:	11 09       	sbc	r17, r1
     c88:	c1 50       	subi	r28, 0x01	; 1
     c8a:	cb 3c       	cpi	r28, 0xCB	; 203
     c8c:	61 f7       	brne	.-40     	; 0xc66 <SYS_Init+0xa8>
     c8e:	05 e0       	ldi	r16, 0x05	; 5
     c90:	10 e0       	ldi	r17, 0x00	; 0
     c92:	20 e0       	ldi	r18, 0x00	; 0
     c94:	45 e0       	ldi	r20, 0x05	; 5
     c96:	6a ef       	ldi	r22, 0xFA	; 250
     c98:	88 ee       	ldi	r24, 0xE8	; 232
     c9a:	9d ef       	ldi	r25, 0xFD	; 253
     c9c:	a7 dc       	rcall	.-1714   	; 0x5ec <LL_ItemInit>
     c9e:	bc 01       	movw	r22, r24
     ca0:	80 91 04 03 	lds	r24, 0x0304	; 0x800304 <HEAD>
     ca4:	90 91 05 03 	lds	r25, 0x0305	; 0x800305 <HEAD+0x1>
     ca8:	cf dc       	rcall	.-1634   	; 0x648 <LL_AddBack>
     caa:	01 50       	subi	r16, 0x01	; 1
     cac:	11 09       	sbc	r17, r1
     cae:	89 f7       	brne	.-30     	; 0xc92 <SYS_Init+0xd4>
     cb0:	8f e4       	ldi	r24, 0x4F	; 79
     cb2:	91 e0       	ldi	r25, 0x01	; 1
     cb4:	8c d2       	rcall	.+1304   	; 0x11ce <UART_SendString>
     cb6:	cf 91       	pop	r28
     cb8:	1f 91       	pop	r17
     cba:	0f 91       	pop	r16
     cbc:	08 95       	ret

00000cbe <SYS_Pause>:
     cbe:	3f 92       	push	r3
     cc0:	4f 92       	push	r4
     cc2:	5f 92       	push	r5
     cc4:	6f 92       	push	r6
     cc6:	7f 92       	push	r7
     cc8:	8f 92       	push	r8
     cca:	9f 92       	push	r9
     ccc:	af 92       	push	r10
     cce:	bf 92       	push	r11
     cd0:	cf 92       	push	r12
     cd2:	df 92       	push	r13
     cd4:	ef 92       	push	r14
     cd6:	ff 92       	push	r15
     cd8:	0f 93       	push	r16
     cda:	1f 93       	push	r17
     cdc:	cf 93       	push	r28
     cde:	df 93       	push	r29
     ce0:	cd b7       	in	r28, 0x3d	; 61
     ce2:	de b7       	in	r29, 0x3e	; 62
     ce4:	ca 5f       	subi	r28, 0xFA	; 250
     ce6:	d1 09       	sbc	r29, r1
     ce8:	0f b6       	in	r0, 0x3f	; 63
     cea:	f8 94       	cli
     cec:	de bf       	out	0x3e, r29	; 62
     cee:	0f be       	out	0x3f, r0	; 63
     cf0:	cd bf       	out	0x3d, r28	; 61
     cf2:	f8 2e       	mov	r15, r24
     cf4:	e9 2e       	mov	r14, r25
     cf6:	f8 94       	cli
     cf8:	80 e0       	ldi	r24, 0x00	; 0
     cfa:	90 e0       	ldi	r25, 0x00	; 0
     cfc:	c5 dd       	rcall	.-1142   	; 0x888 <PWM>
     cfe:	00 91 06 03 	lds	r16, 0x0306	; 0x800306 <FRONT>
     d02:	10 91 07 03 	lds	r17, 0x0307	; 0x800307 <FRONT+0x1>
     d06:	ef 92       	push	r14
     d08:	ff 92       	push	r15
     d0a:	85 e6       	ldi	r24, 0x65	; 101
     d0c:	91 e0       	ldi	r25, 0x01	; 1
     d0e:	9f 93       	push	r25
     d10:	8f 93       	push	r24
     d12:	ce 01       	movw	r24, r28
     d14:	01 96       	adiw	r24, 0x01	; 1
     d16:	7c 01       	movw	r14, r24
     d18:	9f 93       	push	r25
     d1a:	8f 93       	push	r24
     d1c:	87 d3       	rcall	.+1806   	; 0x142c <sprintf>
     d1e:	c7 01       	movw	r24, r14
     d20:	56 d2       	rcall	.+1196   	; 0x11ce <UART_SendString>
     d22:	80 91 04 03 	lds	r24, 0x0304	; 0x800304 <HEAD>
     d26:	90 91 05 03 	lds	r25, 0x0305	; 0x800305 <HEAD+0x1>
     d2a:	e0 dc       	rcall	.-1600   	; 0x6ec <LL_GetTick>
     d2c:	20 91 21 03 	lds	r18, 0x0321	; 0x800321 <g_Timer>
     d30:	30 91 22 03 	lds	r19, 0x0322	; 0x800322 <g_Timer+0x1>
     d34:	9f 93       	push	r25
     d36:	8f 93       	push	r24
     d38:	3f 93       	push	r19
     d3a:	2f 93       	push	r18
     d3c:	80 e8       	ldi	r24, 0x80	; 128
     d3e:	91 e0       	ldi	r25, 0x01	; 1
     d40:	9f 93       	push	r25
     d42:	8f 93       	push	r24
     d44:	ff 92       	push	r15
     d46:	ef 92       	push	r14
     d48:	71 d3       	rcall	.+1762   	; 0x142c <sprintf>
     d4a:	c7 01       	movw	r24, r14
     d4c:	40 d2       	rcall	.+1152   	; 0x11ce <UART_SendString>
     d4e:	0f b6       	in	r0, 0x3f	; 63
     d50:	f8 94       	cli
     d52:	de bf       	out	0x3e, r29	; 62
     d54:	0f be       	out	0x3f, r0	; 63
     d56:	cd bf       	out	0x3d, r28	; 61
     d58:	e1 2c       	mov	r14, r1
     d5a:	f1 2c       	mov	r15, r1
     d5c:	0f 2e       	mov	r0, r31
     d5e:	ff e9       	ldi	r31, 0x9F	; 159
     d60:	af 2e       	mov	r10, r31
     d62:	f1 e0       	ldi	r31, 0x01	; 1
     d64:	bf 2e       	mov	r11, r31
     d66:	f0 2d       	mov	r31, r0
     d68:	6e 01       	movw	r12, r28
     d6a:	f7 e9       	ldi	r31, 0x97	; 151
     d6c:	cf 0e       	add	r12, r31
     d6e:	d1 1c       	adc	r13, r1
     d70:	2d c0       	rjmp	.+90     	; 0xdcc <SYS_Pause+0x10e>
     d72:	8f ef       	ldi	r24, 0xFF	; 255
     d74:	e8 1a       	sub	r14, r24
     d76:	f8 0a       	sbc	r15, r24
     d78:	c8 01       	movw	r24, r16
     d7a:	b8 dc       	rcall	.-1680   	; 0x6ec <LL_GetTick>
     d7c:	68 2e       	mov	r6, r24
     d7e:	59 2e       	mov	r5, r25
     d80:	c8 01       	movw	r24, r16
     d82:	a9 dc       	rcall	.-1710   	; 0x6d6 <LL_GetStatus>
     d84:	78 2e       	mov	r7, r24
     d86:	c8 01       	movw	r24, r16
     d88:	81 dc       	rcall	.-1790   	; 0x68c <LL_GetClass>
     d8a:	88 2e       	mov	r8, r24
     d8c:	c8 01       	movw	r24, r16
     d8e:	89 dc       	rcall	.-1774   	; 0x6a2 <LL_GetMag>
     d90:	98 2e       	mov	r9, r24
     d92:	c8 01       	movw	r24, r16
     d94:	80 dc       	rcall	.-1792   	; 0x696 <LL_GetRefl>
     d96:	5f 92       	push	r5
     d98:	6f 92       	push	r6
     d9a:	1f 92       	push	r1
     d9c:	7f 92       	push	r7
     d9e:	1f 92       	push	r1
     da0:	8f 92       	push	r8
     da2:	1f 92       	push	r1
     da4:	9f 92       	push	r9
     da6:	9f 93       	push	r25
     da8:	8f 93       	push	r24
     daa:	ff 92       	push	r15
     dac:	ef 92       	push	r14
     dae:	bf 92       	push	r11
     db0:	af 92       	push	r10
     db2:	df 92       	push	r13
     db4:	cf 92       	push	r12
     db6:	3a d3       	rcall	.+1652   	; 0x142c <sprintf>
     db8:	c6 01       	movw	r24, r12
     dba:	09 d2       	rcall	.+1042   	; 0x11ce <UART_SendString>
     dbc:	c8 01       	movw	r24, r16
     dbe:	40 dc       	rcall	.-1920   	; 0x640 <LL_Next>
     dc0:	8c 01       	movw	r16, r24
     dc2:	0f b6       	in	r0, 0x3f	; 63
     dc4:	f8 94       	cli
     dc6:	de bf       	out	0x3e, r29	; 62
     dc8:	0f be       	out	0x3f, r0	; 63
     dca:	cd bf       	out	0x3d, r28	; 61
     dcc:	c8 01       	movw	r24, r16
     dce:	5e dc       	rcall	.-1860   	; 0x68c <LL_GetClass>
     dd0:	85 30       	cpi	r24, 0x05	; 5
     dd2:	79 f6       	brne	.-98     	; 0xd72 <SYS_Pause+0xb4>
     dd4:	0f 2e       	mov	r0, r31
     dd6:	fa e2       	ldi	r31, 0x2A	; 42
     dd8:	cf 2e       	mov	r12, r31
     dda:	f3 e0       	ldi	r31, 0x03	; 3
     ddc:	df 2e       	mov	r13, r31
     dde:	f0 2d       	mov	r31, r0
     de0:	00 e0       	ldi	r16, 0x00	; 0
     de2:	10 e0       	ldi	r17, 0x00	; 0
     de4:	0f 2e       	mov	r0, r31
     de6:	fd ed       	ldi	r31, 0xDD	; 221
     de8:	af 2e       	mov	r10, r31
     dea:	f1 e0       	ldi	r31, 0x01	; 1
     dec:	bf 2e       	mov	r11, r31
     dee:	f0 2d       	mov	r31, r0
     df0:	7e 01       	movw	r14, r28
     df2:	f7 e9       	ldi	r31, 0x97	; 151
     df4:	ef 0e       	add	r14, r31
     df6:	f1 1c       	adc	r15, r1
     df8:	f6 01       	movw	r30, r12
     dfa:	80 85       	ldd	r24, Z+8	; 0x08
     dfc:	1f 92       	push	r1
     dfe:	8f 93       	push	r24
     e00:	1f 93       	push	r17
     e02:	0f 93       	push	r16
     e04:	bf 92       	push	r11
     e06:	af 92       	push	r10
     e08:	ff 92       	push	r15
     e0a:	ef 92       	push	r14
     e0c:	0f d3       	rcall	.+1566   	; 0x142c <sprintf>
     e0e:	c7 01       	movw	r24, r14
     e10:	de d1       	rcall	.+956    	; 0x11ce <UART_SendString>
     e12:	0f 5f       	subi	r16, 0xFF	; 255
     e14:	1f 4f       	sbci	r17, 0xFF	; 255
     e16:	f9 e0       	ldi	r31, 0x09	; 9
     e18:	cf 0e       	add	r12, r31
     e1a:	d1 1c       	adc	r13, r1
     e1c:	0f b6       	in	r0, 0x3f	; 63
     e1e:	f8 94       	cli
     e20:	de bf       	out	0x3e, r29	; 62
     e22:	0f be       	out	0x3f, r0	; 63
     e24:	cd bf       	out	0x3d, r28	; 61
     e26:	07 30       	cpi	r16, 0x07	; 7
     e28:	11 05       	cpc	r17, r1
     e2a:	31 f7       	brne	.-52     	; 0xdf8 <SYS_Pause+0x13a>
     e2c:	80 91 72 03 	lds	r24, 0x0372	; 0x800372 <STAGE2>
     e30:	90 91 73 03 	lds	r25, 0x0373	; 0x800373 <STAGE2+0x1>
     e34:	30 dc       	rcall	.-1952   	; 0x696 <LL_GetRefl>
     e36:	48 2e       	mov	r4, r24
     e38:	39 2e       	mov	r3, r25
     e3a:	60 90 72 03 	lds	r6, 0x0372	; 0x800372 <STAGE2>
     e3e:	50 90 73 03 	lds	r5, 0x0373	; 0x800373 <STAGE2+0x1>
     e42:	80 91 28 03 	lds	r24, 0x0328	; 0x800328 <STAGE1>
     e46:	90 91 29 03 	lds	r25, 0x0329	; 0x800329 <STAGE1+0x1>
     e4a:	2b dc       	rcall	.-1962   	; 0x6a2 <LL_GetMag>
     e4c:	78 2e       	mov	r7, r24
     e4e:	90 90 28 03 	lds	r9, 0x0328	; 0x800328 <STAGE1>
     e52:	80 90 29 03 	lds	r8, 0x0329	; 0x800329 <STAGE1+0x1>
     e56:	00 91 08 03 	lds	r16, 0x0308	; 0x800308 <TAIL>
     e5a:	10 91 09 03 	lds	r17, 0x0309	; 0x800309 <TAIL+0x1>
     e5e:	f8 01       	movw	r30, r16
     e60:	b2 80       	ldd	r11, Z+2	; 0x02
     e62:	a3 80       	ldd	r10, Z+3	; 0x03
     e64:	d0 90 06 03 	lds	r13, 0x0306	; 0x800306 <FRONT>
     e68:	c0 90 07 03 	lds	r12, 0x0307	; 0x800307 <FRONT+0x1>
     e6c:	f0 90 04 03 	lds	r15, 0x0304	; 0x800304 <HEAD>
     e70:	e0 90 05 03 	lds	r14, 0x0305	; 0x800305 <HEAD+0x1>
     e74:	8f 2d       	mov	r24, r15
     e76:	9e 2d       	mov	r25, r14
     e78:	f8 db       	rcall	.-2064   	; 0x66a <LL_Size>
     e7a:	3f 92       	push	r3
     e7c:	4f 92       	push	r4
     e7e:	5f 92       	push	r5
     e80:	6f 92       	push	r6
     e82:	1f 92       	push	r1
     e84:	7f 92       	push	r7
     e86:	8f 92       	push	r8
     e88:	9f 92       	push	r9
     e8a:	af 92       	push	r10
     e8c:	bf 92       	push	r11
     e8e:	cf 92       	push	r12
     e90:	df 92       	push	r13
     e92:	1f 93       	push	r17
     e94:	0f 93       	push	r16
     e96:	ef 92       	push	r14
     e98:	ff 92       	push	r15
     e9a:	1f 92       	push	r1
     e9c:	8f 93       	push	r24
     e9e:	84 ef       	ldi	r24, 0xF4	; 244
     ea0:	91 e0       	ldi	r25, 0x01	; 1
     ea2:	9f 93       	push	r25
     ea4:	8f 93       	push	r24
     ea6:	8e 01       	movw	r16, r28
     ea8:	0b 59       	subi	r16, 0x9B	; 155
     eaa:	1f 4f       	sbci	r17, 0xFF	; 255
     eac:	1f 93       	push	r17
     eae:	0f 93       	push	r16
     eb0:	bd d2       	rcall	.+1402   	; 0x142c <sprintf>
     eb2:	c8 01       	movw	r24, r16
     eb4:	8c d1       	rcall	.+792    	; 0x11ce <UART_SendString>
     eb6:	0f b6       	in	r0, 0x3f	; 63
     eb8:	f8 94       	cli
     eba:	de bf       	out	0x3e, r29	; 62
     ebc:	0f be       	out	0x3f, r0	; 63
     ebe:	cd bf       	out	0x3d, r28	; 61
     ec0:	89 b1       	in	r24, 0x09	; 9
     ec2:	83 70       	andi	r24, 0x03	; 3
     ec4:	e9 f7       	brne	.-6      	; 0xec0 <SYS_Pause+0x202>
     ec6:	84 e2       	ldi	r24, 0x24	; 36
     ec8:	91 e0       	ldi	r25, 0x01	; 1
     eca:	81 d1       	rcall	.+770    	; 0x11ce <UART_SendString>
     ecc:	80 e8       	ldi	r24, 0x80	; 128
     ece:	90 e0       	ldi	r25, 0x00	; 0
     ed0:	db dc       	rcall	.-1610   	; 0x888 <PWM>
     ed2:	78 94       	sei
     ed4:	c6 50       	subi	r28, 0x06	; 6
     ed6:	df 4f       	sbci	r29, 0xFF	; 255
     ed8:	0f b6       	in	r0, 0x3f	; 63
     eda:	f8 94       	cli
     edc:	de bf       	out	0x3e, r29	; 62
     ede:	0f be       	out	0x3f, r0	; 63
     ee0:	cd bf       	out	0x3d, r28	; 61
     ee2:	df 91       	pop	r29
     ee4:	cf 91       	pop	r28
     ee6:	1f 91       	pop	r17
     ee8:	0f 91       	pop	r16
     eea:	ff 90       	pop	r15
     eec:	ef 90       	pop	r14
     eee:	df 90       	pop	r13
     ef0:	cf 90       	pop	r12
     ef2:	bf 90       	pop	r11
     ef4:	af 90       	pop	r10
     ef6:	9f 90       	pop	r9
     ef8:	8f 90       	pop	r8
     efa:	7f 90       	pop	r7
     efc:	6f 90       	pop	r6
     efe:	5f 90       	pop	r5
     f00:	4f 90       	pop	r4
     f02:	3f 90       	pop	r3
     f04:	08 95       	ret

00000f06 <SYS_Rampdown>:

void SYS_Rampdown()
{
     f06:	ff 92       	push	r15
     f08:	0f 93       	push	r16
     f0a:	1f 93       	push	r17
     f0c:	cf 93       	push	r28
     f0e:	df 93       	push	r29
     f10:	cd b7       	in	r28, 0x3d	; 61
     f12:	de b7       	in	r29, 0x3e	; 62
     f14:	e8 97       	sbiw	r28, 0x38	; 56
     f16:	0f b6       	in	r0, 0x3f	; 63
     f18:	f8 94       	cli
     f1a:	de bf       	out	0x3e, r29	; 62
     f1c:	0f be       	out	0x3f, r0	; 63
     f1e:	cd bf       	out	0x3d, r28	; 61
	//
	uint8_t sortedStats[6] = {0,0,0,0,0,0};
     f20:	fe 01       	movw	r30, r28
     f22:	31 96       	adiw	r30, 0x01	; 1
     f24:	86 e0       	ldi	r24, 0x06	; 6
     f26:	df 01       	movw	r26, r30
     f28:	1d 92       	st	X+, r1
     f2a:	8a 95       	dec	r24
     f2c:	e9 f7       	brne	.-6      	; 0xf28 <SYS_Rampdown+0x22>
	uint8_t total = 0;
	
	char str[50];
	
	list* temp = FRONT;
     f2e:	00 91 06 03 	lds	r16, 0x0306	; 0x800306 <FRONT>
     f32:	10 91 07 03 	lds	r17, 0x0307	; 0x800307 <FRONT+0x1>
	
	cli();
     f36:	f8 94       	cli
	PORTD = 0;
     f38:	1b b8       	out	0x0b, r1	; 11
	PORTC = 0;
     f3a:	18 b8       	out	0x08, r1	; 8
	PWM(0);
     f3c:	80 e0       	ldi	r24, 0x00	; 0
     f3e:	90 e0       	ldi	r25, 0x00	; 0
     f40:	a3 dc       	rcall	.-1722   	; 0x888 <PWM>
	
	
	UART_SendString("\r\n\r\n\r\n\r\n\r\n\r\nSystem Ramping Down...\r\n");
     f42:	8a e7       	ldi	r24, 0x7A	; 122
     f44:	92 e0       	ldi	r25, 0x02	; 2
     f46:	43 d1       	rcall	.+646    	; 0x11ce <UART_SendString>

void SYS_Rampdown()
{
	//
	uint8_t sortedStats[6] = {0,0,0,0,0,0};
	uint8_t total = 0;
     f48:	f1 2c       	mov	r15, r1
	PWM(0);
	
	
	UART_SendString("\r\n\r\n\r\n\r\n\r\n\r\nSystem Ramping Down...\r\n");
	
	while(LL_GetStatus(temp) == EXPIRED)
     f4a:	0f c0       	rjmp	.+30     	; 0xf6a <SYS_Rampdown+0x64>
	{	
		total++;
		sortedStats[LL_GetClass(temp)] += 1; 
     f4c:	f3 94       	inc	r15
     f4e:	c8 01       	movw	r24, r16
     f50:	9d db       	rcall	.-2246   	; 0x68c <LL_GetClass>
     f52:	e1 e0       	ldi	r30, 0x01	; 1
     f54:	f0 e0       	ldi	r31, 0x00	; 0
     f56:	ec 0f       	add	r30, r28
     f58:	fd 1f       	adc	r31, r29
     f5a:	e8 0f       	add	r30, r24
     f5c:	f1 1d       	adc	r31, r1
     f5e:	80 81       	ld	r24, Z
     f60:	8f 5f       	subi	r24, 0xFF	; 255
		temp = LL_Next(temp);
     f62:	80 83       	st	Z, r24
     f64:	c8 01       	movw	r24, r16
     f66:	6c db       	rcall	.-2344   	; 0x640 <LL_Next>
	PWM(0);
	
	
	UART_SendString("\r\n\r\n\r\n\r\n\r\n\r\nSystem Ramping Down...\r\n");
	
	while(LL_GetStatus(temp) == EXPIRED)
     f68:	8c 01       	movw	r16, r24
     f6a:	c8 01       	movw	r24, r16
     f6c:	b4 db       	rcall	.-2200   	; 0x6d6 <LL_GetStatus>
     f6e:	83 30       	cpi	r24, 0x03	; 3
     f70:	69 f3       	breq	.-38     	; 0xf4c <SYS_Rampdown+0x46>
		total++;
		sortedStats[LL_GetClass(temp)] += 1; 
		temp = LL_Next(temp);
	}
	
	sprintf(str,"%u Items Sorted!\r\n\r\nBlack: %u/12\tWhite: %u/12\tSteel: %u/12\tAluminum: %u/12\tUnknown Items: %u\r\n",
     f72:	8d 81       	ldd	r24, Y+5	; 0x05
     f74:	1f 92       	push	r1
     f76:	8f 93       	push	r24
     f78:	8b 81       	ldd	r24, Y+3	; 0x03
     f7a:	1f 92       	push	r1
     f7c:	8f 93       	push	r24
     f7e:	8c 81       	ldd	r24, Y+4	; 0x04
     f80:	1f 92       	push	r1
     f82:	8f 93       	push	r24
     f84:	89 81       	ldd	r24, Y+1	; 0x01
     f86:	1f 92       	push	r1
     f88:	8f 93       	push	r24
     f8a:	8a 81       	ldd	r24, Y+2	; 0x02
     f8c:	1f 92       	push	r1
     f8e:	8f 93       	push	r24
     f90:	1f 92       	push	r1
     f92:	ff 92       	push	r15
     f94:	8f e9       	ldi	r24, 0x9F	; 159
     f96:	92 e0       	ldi	r25, 0x02	; 2
     f98:	9f 93       	push	r25
     f9a:	8f 93       	push	r24
     f9c:	8e 01       	movw	r16, r28
     f9e:	09 5f       	subi	r16, 0xF9	; 249
     fa0:	1f 4f       	sbci	r17, 0xFF	; 255
     fa2:	1f 93       	push	r17
     fa4:	0f 93       	push	r16
				total, sortedStats[1], sortedStats[0], sortedStats[3], sortedStats[2], sortedStats[4]);
	UART_SendString(str);
     fa6:	42 d2       	rcall	.+1156   	; 0x142c <sprintf>
     fa8:	c8 01       	movw	r24, r16
     faa:	11 d1       	rcall	.+546    	; 0x11ce <UART_SendString>
	//SYS_Calibrate("Get Calibration Stats:");
}
     fac:	0f b6       	in	r0, 0x3f	; 63
     fae:	f8 94       	cli
     fb0:	de bf       	out	0x3e, r29	; 62
     fb2:	0f be       	out	0x3f, r0	; 63
     fb4:	cd bf       	out	0x3d, r28	; 61
     fb6:	e8 96       	adiw	r28, 0x38	; 56
     fb8:	0f b6       	in	r0, 0x3f	; 63
     fba:	f8 94       	cli
     fbc:	de bf       	out	0x3e, r29	; 62
     fbe:	0f be       	out	0x3f, r0	; 63
     fc0:	cd bf       	out	0x3d, r28	; 61
     fc2:	df 91       	pop	r29
     fc4:	cf 91       	pop	r28
     fc6:	1f 91       	pop	r17
     fc8:	0f 91       	pop	r16
     fca:	ff 90       	pop	r15
     fcc:	08 95       	ret

00000fce <__vector_17>:
/*-----------------------------------------------------------*/

volatile uint16_t _timer_tick = 0;

ISR (TIMER1_COMPA_vect)    // Timer1 ISR
{
     fce:	1f 92       	push	r1
     fd0:	0f 92       	push	r0
     fd2:	0f b6       	in	r0, 0x3f	; 63
     fd4:	0f 92       	push	r0
     fd6:	11 24       	eor	r1, r1
     fd8:	0b b6       	in	r0, 0x3b	; 59
     fda:	0f 92       	push	r0
     fdc:	ef 92       	push	r14
     fde:	ff 92       	push	r15
     fe0:	0f 93       	push	r16
     fe2:	1f 93       	push	r17
     fe4:	2f 93       	push	r18
     fe6:	3f 93       	push	r19
     fe8:	4f 93       	push	r20
     fea:	5f 93       	push	r21
     fec:	6f 93       	push	r22
     fee:	7f 93       	push	r23
     ff0:	8f 93       	push	r24
     ff2:	9f 93       	push	r25
     ff4:	af 93       	push	r26
     ff6:	bf 93       	push	r27
     ff8:	cf 93       	push	r28
     ffa:	df 93       	push	r29
     ffc:	ef 93       	push	r30
     ffe:	ff 93       	push	r31
	* \brief 	This is the system scheduler
	*			Clock Driven scheduling was used to implement this project
	*			The clock operates on 444 us frame size
	*			Worst case utilization is around 350 / 444 us
	*/	
	_timer_tick++;
    1000:	80 91 02 03 	lds	r24, 0x0302	; 0x800302 <_timer_tick>
    1004:	90 91 03 03 	lds	r25, 0x0303	; 0x800303 <_timer_tick+0x1>
    1008:	01 96       	adiw	r24, 0x01	; 1
    100a:	90 93 03 03 	sts	0x0303, r25	; 0x800303 <_timer_tick+0x1>
    100e:	80 93 02 03 	sts	0x0302, r24	; 0x800302 <_timer_tick>
    1012:	ca e2       	ldi	r28, 0x2A	; 42
    1014:	d3 e0       	ldi	r29, 0x03	; 3
    1016:	0f 2e       	mov	r0, r31
    1018:	f2 e7       	ldi	r31, 0x72	; 114
    101a:	ef 2e       	mov	r14, r31
    101c:	f3 e0       	ldi	r31, 0x03	; 3
    101e:	ff 2e       	mov	r15, r31
    1020:	f0 2d       	mov	r31, r0
    1022:	8e 01       	movw	r16, r28
	size_t i;
	
	for (i = 0; i < MAX_TIMERS; i++) {
		
		// If the timer is enabled and expired
		if ((_timer[i].callback != NULL) && (_timer[i].expiry == _timer_tick)) {
    1024:	ec 81       	ldd	r30, Y+4	; 0x04
    1026:	fd 81       	ldd	r31, Y+5	; 0x05
    1028:	30 97       	sbiw	r30, 0x00	; 0
    102a:	09 f1       	breq	.+66     	; 0x106e <__vector_17+0xa0>
    102c:	80 91 02 03 	lds	r24, 0x0302	; 0x800302 <_timer_tick>
    1030:	90 91 03 03 	lds	r25, 0x0303	; 0x800303 <_timer_tick+0x1>
    1034:	28 81       	ld	r18, Y
    1036:	39 81       	ldd	r19, Y+1	; 0x01
    1038:	28 17       	cp	r18, r24
    103a:	39 07       	cpc	r19, r25
    103c:	c1 f4       	brne	.+48     	; 0x106e <__vector_17+0xa0>

			// If the timer is not blocked invoke the callback
			if (_timer[i].state == READY) _timer[i].callback(_timer[i].arg);
    103e:	88 85       	ldd	r24, Y+8	; 0x08
    1040:	82 30       	cpi	r24, 0x02	; 2
    1042:	19 f4       	brne	.+6      	; 0x104a <__vector_17+0x7c>
    1044:	8e 81       	ldd	r24, Y+6	; 0x06
    1046:	9f 81       	ldd	r25, Y+7	; 0x07
    1048:	09 95       	icall
			
			if (_timer[i].periodic > 0) {
    104a:	d8 01       	movw	r26, r16
    104c:	12 96       	adiw	r26, 0x02	; 2
    104e:	8d 91       	ld	r24, X+
    1050:	9c 91       	ld	r25, X
    1052:	13 97       	sbiw	r26, 0x03	; 3
    1054:	00 97       	sbiw	r24, 0x00	; 0
    1056:	41 f0       	breq	.+16     	; 0x1068 <__vector_17+0x9a>
				
				// Recalculate expiry
				_timer[i].expiry += _timer[i].periodic;
    1058:	2d 91       	ld	r18, X+
    105a:	3c 91       	ld	r19, X
    105c:	11 97       	sbiw	r26, 0x01	; 1
    105e:	82 0f       	add	r24, r18
    1060:	93 1f       	adc	r25, r19
    1062:	8d 93       	st	X+, r24
    1064:	9c 93       	st	X, r25
    1066:	03 c0       	rjmp	.+6      	; 0x106e <__vector_17+0xa0>
				} else {
				// Disable Timer
				_timer[i].callback = NULL;
    1068:	f8 01       	movw	r30, r16
    106a:	15 82       	std	Z+5, r1	; 0x05
    106c:	14 82       	std	Z+4, r1	; 0x04
    106e:	29 96       	adiw	r28, 0x09	; 9
	*			Worst case utilization is around 350 / 444 us
	*/	
	_timer_tick++;
	size_t i;
	
	for (i = 0; i < MAX_TIMERS; i++) {
    1070:	ce 15       	cp	r28, r14
    1072:	df 05       	cpc	r29, r15
    1074:	b1 f6       	brne	.-84     	; 0x1022 <__vector_17+0x54>
				// Disable Timer
				_timer[i].callback = NULL;
			}
		}
	}
}
    1076:	ff 91       	pop	r31
    1078:	ef 91       	pop	r30
    107a:	df 91       	pop	r29
    107c:	cf 91       	pop	r28
    107e:	bf 91       	pop	r27
    1080:	af 91       	pop	r26
    1082:	9f 91       	pop	r25
    1084:	8f 91       	pop	r24
    1086:	7f 91       	pop	r23
    1088:	6f 91       	pop	r22
    108a:	5f 91       	pop	r21
    108c:	4f 91       	pop	r20
    108e:	3f 91       	pop	r19
    1090:	2f 91       	pop	r18
    1092:	1f 91       	pop	r17
    1094:	0f 91       	pop	r16
    1096:	ff 90       	pop	r15
    1098:	ef 90       	pop	r14
    109a:	0f 90       	pop	r0
    109c:	0b be       	out	0x3b, r0	; 59
    109e:	0f 90       	pop	r0
    10a0:	0f be       	out	0x3f, r0	; 63
    10a2:	0f 90       	pop	r0
    10a4:	1f 90       	pop	r1
    10a6:	18 95       	reti

000010a8 <TIMER_Init>:
	* \brief 	Initializes Timer1 (Scheduler)
	*
	* \return 	NULL
	*/	
	
    TCNT1 = 0x0000;
    10a8:	10 92 85 00 	sts	0x0085, r1	; 0x800085 <__TEXT_REGION_LENGTH__+0x7e0085>
    10ac:	10 92 84 00 	sts	0x0084, r1	; 0x800084 <__TEXT_REGION_LENGTH__+0x7e0084>
	
	
	// 12C0 == 600us, 960 = 300 us, 0x0DE0 = 444us, 0x06F0 = 222us, 0x0A68 = 333us, 0x0898 = 275 us, 0x848 = 265us
	
	// At 6/2 adc
	OCR1A = 0x0848;
    10b0:	88 e4       	ldi	r24, 0x48	; 72
    10b2:	98 e0       	ldi	r25, 0x08	; 8
    10b4:	90 93 89 00 	sts	0x0089, r25	; 0x800089 <__TEXT_REGION_LENGTH__+0x7e0089>
    10b8:	80 93 88 00 	sts	0x0088, r24	; 0x800088 <__TEXT_REGION_LENGTH__+0x7e0088>

	// Timer mode with no prescaling and CTC mode (reset counter on compare mode)   
    TCCR1A = 0x00;
    10bc:	10 92 80 00 	sts	0x0080, r1	; 0x800080 <__TEXT_REGION_LENGTH__+0x7e0080>
    TCCR1B = (1<<CS10) | (1<<WGM12);
    10c0:	89 e0       	ldi	r24, 0x09	; 9
    10c2:	80 93 81 00 	sts	0x0081, r24	; 0x800081 <__TEXT_REGION_LENGTH__+0x7e0081>

	// Enable timer1 output compare interrupt  
    TIMSK1 = (1 << OCIE1A) ;   
    10c6:	82 e0       	ldi	r24, 0x02	; 2
    10c8:	80 93 6f 00 	sts	0x006F, r24	; 0x80006f <__TEXT_REGION_LENGTH__+0x7e006f>
	
	// Allocate scheduler array
	memset(_timer, 0, sizeof(_timer));
    10cc:	88 e4       	ldi	r24, 0x48	; 72
    10ce:	ea e2       	ldi	r30, 0x2A	; 42
    10d0:	f3 e0       	ldi	r31, 0x03	; 3
    10d2:	df 01       	movw	r26, r30
    10d4:	1d 92       	st	X+, r1
    10d6:	8a 95       	dec	r24
    10d8:	e9 f7       	brne	.-6      	; 0x10d4 <TIMER_Init+0x2c>
    10da:	08 95       	ret

000010dc <TIMER_Create>:

	return;
} // TIMER_Init

int TIMER_Create(uint16_t timeout, int periodic, void (*callback)(void *), void *arg)
{
    10dc:	0f 93       	push	r16
    10de:	1f 93       	push	r17
    10e0:	cf 93       	push	r28
    10e2:	df 93       	push	r29
    10e4:	8b 01       	movw	r16, r22
	int handle = -1;
	size_t i;
	
	for(i = 0; i < MAX_TIMERS; i++)
	{
		if (_timer[i].callback == NULL) break;
    10e6:	60 91 2e 03 	lds	r22, 0x032E	; 0x80032e <_timer+0x4>
    10ea:	70 91 2f 03 	lds	r23, 0x032F	; 0x80032f <_timer+0x5>
    10ee:	67 2b       	or	r22, r23
    10f0:	09 f4       	brne	.+2      	; 0x10f4 <TIMER_Create+0x18>
    10f2:	49 c0       	rjmp	.+146    	; 0x1186 <TIMER_Create+0xaa>
    10f4:	ea e2       	ldi	r30, 0x2A	; 42
    10f6:	f3 e0       	ldi	r31, 0x03	; 3
	* \return	0 on fail, _timer handle on success
	*/	
	int handle = -1;
	size_t i;
	
	for(i = 0; i < MAX_TIMERS; i++)
    10f8:	a1 e0       	ldi	r26, 0x01	; 1
    10fa:	b0 e0       	ldi	r27, 0x00	; 0
	{
		if (_timer[i].callback == NULL) break;
    10fc:	c5 85       	ldd	r28, Z+13	; 0x0d
    10fe:	d6 85       	ldd	r29, Z+14	; 0x0e
    1100:	cd 2b       	or	r28, r29
    1102:	09 f4       	brne	.+2      	; 0x1106 <TIMER_Create+0x2a>
    1104:	42 c0       	rjmp	.+132    	; 0x118a <TIMER_Create+0xae>
	* \return	0 on fail, _timer handle on success
	*/	
	int handle = -1;
	size_t i;
	
	for(i = 0; i < MAX_TIMERS; i++)
    1106:	11 96       	adiw	r26, 0x01	; 1
    1108:	39 96       	adiw	r30, 0x09	; 9
    110a:	a8 30       	cpi	r26, 0x08	; 8
    110c:	b1 05       	cpc	r27, r1
    110e:	b1 f7       	brne	.-20     	; 0x10fc <TIMER_Create+0x20>
		}
		
	handle = i;	
	return handle;
	}
    return 0;
    1110:	80 e0       	ldi	r24, 0x00	; 0
    1112:	90 e0       	ldi	r25, 0x00	; 0
    1114:	3f c0       	rjmp	.+126    	; 0x1194 <TIMER_Create+0xb8>
	{
		ATOMIC_BLOCK(ATOMIC_RESTORESTATE)
		{
			if (periodic != 0) 
			{
				_timer[i].periodic = timeout;
    1116:	fd 01       	movw	r30, r26
    1118:	ee 0f       	add	r30, r30
    111a:	ff 1f       	adc	r31, r31
    111c:	ee 0f       	add	r30, r30
    111e:	ff 1f       	adc	r31, r31
    1120:	ee 0f       	add	r30, r30
    1122:	ff 1f       	adc	r31, r31
    1124:	ea 0f       	add	r30, r26
    1126:	fb 1f       	adc	r31, r27
    1128:	e6 5d       	subi	r30, 0xD6	; 214
    112a:	fc 4f       	sbci	r31, 0xFC	; 252
    112c:	93 83       	std	Z+3, r25	; 0x03
    112e:	82 83       	std	Z+2, r24	; 0x02
    1130:	0d c0       	rjmp	.+26     	; 0x114c <TIMER_Create+0x70>
			} 
			else 
			{
				_timer[i].periodic = 0;
    1132:	fd 01       	movw	r30, r26
    1134:	ee 0f       	add	r30, r30
    1136:	ff 1f       	adc	r31, r31
    1138:	ee 0f       	add	r30, r30
    113a:	ff 1f       	adc	r31, r31
    113c:	ee 0f       	add	r30, r30
    113e:	ff 1f       	adc	r31, r31
    1140:	ea 0f       	add	r30, r26
    1142:	fb 1f       	adc	r31, r27
    1144:	e6 5d       	subi	r30, 0xD6	; 214
    1146:	fc 4f       	sbci	r31, 0xFC	; 252
    1148:	13 82       	std	Z+3, r1	; 0x03
    114a:	12 82       	std	Z+2, r1	; 0x02
			}
			
			_timer[i].callback = callback;
    114c:	fd 01       	movw	r30, r26
    114e:	ee 0f       	add	r30, r30
    1150:	ff 1f       	adc	r31, r31
    1152:	ee 0f       	add	r30, r30
    1154:	ff 1f       	adc	r31, r31
    1156:	ee 0f       	add	r30, r30
    1158:	ff 1f       	adc	r31, r31
    115a:	ea 0f       	add	r30, r26
    115c:	fb 1f       	adc	r31, r27
    115e:	e6 5d       	subi	r30, 0xD6	; 214
    1160:	fc 4f       	sbci	r31, 0xFC	; 252
    1162:	55 83       	std	Z+5, r21	; 0x05
    1164:	44 83       	std	Z+4, r20	; 0x04
			_timer[i].arg = arg;
    1166:	37 83       	std	Z+7, r19	; 0x07
    1168:	26 83       	std	Z+6, r18	; 0x06
			_timer[i].expiry = timeout + _timer_tick;
    116a:	20 91 02 03 	lds	r18, 0x0302	; 0x800302 <_timer_tick>
    116e:	30 91 03 03 	lds	r19, 0x0303	; 0x800303 <_timer_tick+0x1>
    1172:	82 0f       	add	r24, r18
    1174:	93 1f       	adc	r25, r19
    1176:	91 83       	std	Z+1, r25	; 0x01
    1178:	80 83       	st	Z, r24
			_timer[i].state = READY;
    117a:	82 e0       	ldi	r24, 0x02	; 2
    117c:	80 87       	std	Z+8, r24	; 0x08
    (void)__s;
}

static __inline__ void __iRestore(const  uint8_t *__s)
{
    SREG = *__s;
    117e:	7f bf       	out	0x3f, r23	; 63
			
		}
		
	handle = i;	
	return handle;
    1180:	8a 2f       	mov	r24, r26
    1182:	9b 2f       	mov	r25, r27
    1184:	07 c0       	rjmp	.+14     	; 0x1194 <TIMER_Create+0xb8>
	* \return	0 on fail, _timer handle on success
	*/	
	int handle = -1;
	size_t i;
	
	for(i = 0; i < MAX_TIMERS; i++)
    1186:	a0 e0       	ldi	r26, 0x00	; 0
    1188:	b0 e0       	ldi	r27, 0x00	; 0
		if (_timer[i].callback == NULL) break;
	}
	
	if (i < MAX_TIMERS)
	{
		ATOMIC_BLOCK(ATOMIC_RESTORESTATE)
    118a:	7f b7       	in	r23, 0x3f	; 63
    return 1;
}

static __inline__ uint8_t __iCliRetVal(void)
{
    cli();
    118c:	f8 94       	cli
		{
			if (periodic != 0) 
    118e:	01 2b       	or	r16, r17
    1190:	11 f6       	brne	.-124    	; 0x1116 <TIMER_Create+0x3a>
    1192:	cf cf       	rjmp	.-98     	; 0x1132 <TIMER_Create+0x56>
		
	handle = i;	
	return handle;
	}
    return 0;
} // TIMER_Create
    1194:	df 91       	pop	r29
    1196:	cf 91       	pop	r28
    1198:	1f 91       	pop	r17
    119a:	0f 91       	pop	r16
    119c:	08 95       	ret

0000119e <UART_Init>:
	/*! 
	* \brief 	Initializes UART
	*/	

	// BAUD 9600
	UBRR1H = (uint8_t)((((uint32_t)FOSC)/((uint32_t)9600*16)-1)>>8);
    119e:	10 92 cd 00 	sts	0x00CD, r1	; 0x8000cd <__TEXT_REGION_LENGTH__+0x7e00cd>
	UBRR1L = (uint8_t)(((uint32_t)FOSC)/((uint32_t)9600*16)-1) & 0x0ff;
    11a2:	83 e3       	ldi	r24, 0x33	; 51
    11a4:	80 93 cc 00 	sts	0x00CC, r24	; 0x8000cc <__TEXT_REGION_LENGTH__+0x7e00cc>
	
	// Enable Transmit Receive
	UCSR1B |= (1 << RXEN1) | (1 << TXEN1);
    11a8:	e9 ec       	ldi	r30, 0xC9	; 201
    11aa:	f0 e0       	ldi	r31, 0x00	; 0
    11ac:	80 81       	ld	r24, Z
    11ae:	88 61       	ori	r24, 0x18	; 24
    11b0:	80 83       	st	Z, r24
	UCSR1C |= (1 << UCSZ11) | (1 << UCSZ10);
    11b2:	ea ec       	ldi	r30, 0xCA	; 202
    11b4:	f0 e0       	ldi	r31, 0x00	; 0
    11b6:	80 81       	ld	r24, Z
    11b8:	86 60       	ori	r24, 0x06	; 6
    11ba:	80 83       	st	Z, r24
    11bc:	08 95       	ret

000011be <UART_SendChar>:
	*		
	* \param	a character
	*/	

	// Wait while UART is busy
	while ((UCSR1A & (1 << UDRE1)) == 0) {;}
    11be:	e8 ec       	ldi	r30, 0xC8	; 200
    11c0:	f0 e0       	ldi	r31, 0x00	; 0
    11c2:	90 81       	ld	r25, Z
    11c4:	95 ff       	sbrs	r25, 5
    11c6:	fd cf       	rjmp	.-6      	; 0x11c2 <UART_SendChar+0x4>
	UDR1 = c;
    11c8:	80 93 ce 00 	sts	0x00CE, r24	; 0x8000ce <__TEXT_REGION_LENGTH__+0x7e00ce>
    11cc:	08 95       	ret

000011ce <UART_SendString>:
	
}

void UART_SendString(const char* str)
{
    11ce:	cf 93       	push	r28
    11d0:	df 93       	push	r29
    11d2:	ec 01       	movw	r28, r24
	* \param	a string
	*/

	// Send all char except \0
	uint16_t counter = 0;
	while(str[counter] != '\0')
    11d4:	88 81       	ld	r24, Y
    11d6:	88 23       	and	r24, r24
    11d8:	29 f0       	breq	.+10     	; 0x11e4 <UART_SendString+0x16>
    11da:	21 96       	adiw	r28, 0x01	; 1
	{
		UART_SendChar(str[counter]);
    11dc:	f0 df       	rcall	.-32     	; 0x11be <UART_SendChar>
	* \param	a string
	*/

	// Send all char except \0
	uint16_t counter = 0;
	while(str[counter] != '\0')
    11de:	89 91       	ld	r24, Y+
    11e0:	81 11       	cpse	r24, r1
    11e2:	fc cf       	rjmp	.-8      	; 0x11dc <UART_SendString+0xe>
	{
		UART_SendChar(str[counter]);
		counter++;
	}
}
    11e4:	df 91       	pop	r29
    11e6:	cf 91       	pop	r28
    11e8:	08 95       	ret

000011ea <malloc>:
    11ea:	0f 93       	push	r16
    11ec:	1f 93       	push	r17
    11ee:	cf 93       	push	r28
    11f0:	df 93       	push	r29
    11f2:	82 30       	cpi	r24, 0x02	; 2
    11f4:	91 05       	cpc	r25, r1
    11f6:	10 f4       	brcc	.+4      	; 0x11fc <malloc+0x12>
    11f8:	82 e0       	ldi	r24, 0x02	; 2
    11fa:	90 e0       	ldi	r25, 0x00	; 0
    11fc:	e0 91 88 03 	lds	r30, 0x0388	; 0x800388 <__flp>
    1200:	f0 91 89 03 	lds	r31, 0x0389	; 0x800389 <__flp+0x1>
    1204:	20 e0       	ldi	r18, 0x00	; 0
    1206:	30 e0       	ldi	r19, 0x00	; 0
    1208:	a0 e0       	ldi	r26, 0x00	; 0
    120a:	b0 e0       	ldi	r27, 0x00	; 0
    120c:	30 97       	sbiw	r30, 0x00	; 0
    120e:	19 f1       	breq	.+70     	; 0x1256 <malloc+0x6c>
    1210:	40 81       	ld	r20, Z
    1212:	51 81       	ldd	r21, Z+1	; 0x01
    1214:	02 81       	ldd	r16, Z+2	; 0x02
    1216:	13 81       	ldd	r17, Z+3	; 0x03
    1218:	48 17       	cp	r20, r24
    121a:	59 07       	cpc	r21, r25
    121c:	c8 f0       	brcs	.+50     	; 0x1250 <malloc+0x66>
    121e:	84 17       	cp	r24, r20
    1220:	95 07       	cpc	r25, r21
    1222:	69 f4       	brne	.+26     	; 0x123e <malloc+0x54>
    1224:	10 97       	sbiw	r26, 0x00	; 0
    1226:	31 f0       	breq	.+12     	; 0x1234 <malloc+0x4a>
    1228:	12 96       	adiw	r26, 0x02	; 2
    122a:	0c 93       	st	X, r16
    122c:	12 97       	sbiw	r26, 0x02	; 2
    122e:	13 96       	adiw	r26, 0x03	; 3
    1230:	1c 93       	st	X, r17
    1232:	27 c0       	rjmp	.+78     	; 0x1282 <malloc+0x98>
    1234:	00 93 88 03 	sts	0x0388, r16	; 0x800388 <__flp>
    1238:	10 93 89 03 	sts	0x0389, r17	; 0x800389 <__flp+0x1>
    123c:	22 c0       	rjmp	.+68     	; 0x1282 <malloc+0x98>
    123e:	21 15       	cp	r18, r1
    1240:	31 05       	cpc	r19, r1
    1242:	19 f0       	breq	.+6      	; 0x124a <malloc+0x60>
    1244:	42 17       	cp	r20, r18
    1246:	53 07       	cpc	r21, r19
    1248:	18 f4       	brcc	.+6      	; 0x1250 <malloc+0x66>
    124a:	9a 01       	movw	r18, r20
    124c:	bd 01       	movw	r22, r26
    124e:	ef 01       	movw	r28, r30
    1250:	df 01       	movw	r26, r30
    1252:	f8 01       	movw	r30, r16
    1254:	db cf       	rjmp	.-74     	; 0x120c <malloc+0x22>
    1256:	21 15       	cp	r18, r1
    1258:	31 05       	cpc	r19, r1
    125a:	f9 f0       	breq	.+62     	; 0x129a <malloc+0xb0>
    125c:	28 1b       	sub	r18, r24
    125e:	39 0b       	sbc	r19, r25
    1260:	24 30       	cpi	r18, 0x04	; 4
    1262:	31 05       	cpc	r19, r1
    1264:	80 f4       	brcc	.+32     	; 0x1286 <malloc+0x9c>
    1266:	8a 81       	ldd	r24, Y+2	; 0x02
    1268:	9b 81       	ldd	r25, Y+3	; 0x03
    126a:	61 15       	cp	r22, r1
    126c:	71 05       	cpc	r23, r1
    126e:	21 f0       	breq	.+8      	; 0x1278 <malloc+0x8e>
    1270:	fb 01       	movw	r30, r22
    1272:	93 83       	std	Z+3, r25	; 0x03
    1274:	82 83       	std	Z+2, r24	; 0x02
    1276:	04 c0       	rjmp	.+8      	; 0x1280 <malloc+0x96>
    1278:	90 93 89 03 	sts	0x0389, r25	; 0x800389 <__flp+0x1>
    127c:	80 93 88 03 	sts	0x0388, r24	; 0x800388 <__flp>
    1280:	fe 01       	movw	r30, r28
    1282:	32 96       	adiw	r30, 0x02	; 2
    1284:	44 c0       	rjmp	.+136    	; 0x130e <malloc+0x124>
    1286:	fe 01       	movw	r30, r28
    1288:	e2 0f       	add	r30, r18
    128a:	f3 1f       	adc	r31, r19
    128c:	81 93       	st	Z+, r24
    128e:	91 93       	st	Z+, r25
    1290:	22 50       	subi	r18, 0x02	; 2
    1292:	31 09       	sbc	r19, r1
    1294:	39 83       	std	Y+1, r19	; 0x01
    1296:	28 83       	st	Y, r18
    1298:	3a c0       	rjmp	.+116    	; 0x130e <malloc+0x124>
    129a:	20 91 86 03 	lds	r18, 0x0386	; 0x800386 <__brkval>
    129e:	30 91 87 03 	lds	r19, 0x0387	; 0x800387 <__brkval+0x1>
    12a2:	23 2b       	or	r18, r19
    12a4:	41 f4       	brne	.+16     	; 0x12b6 <malloc+0xcc>
    12a6:	20 91 02 01 	lds	r18, 0x0102	; 0x800102 <__malloc_heap_start>
    12aa:	30 91 03 01 	lds	r19, 0x0103	; 0x800103 <__malloc_heap_start+0x1>
    12ae:	30 93 87 03 	sts	0x0387, r19	; 0x800387 <__brkval+0x1>
    12b2:	20 93 86 03 	sts	0x0386, r18	; 0x800386 <__brkval>
    12b6:	20 91 00 01 	lds	r18, 0x0100	; 0x800100 <__data_start>
    12ba:	30 91 01 01 	lds	r19, 0x0101	; 0x800101 <__data_start+0x1>
    12be:	21 15       	cp	r18, r1
    12c0:	31 05       	cpc	r19, r1
    12c2:	41 f4       	brne	.+16     	; 0x12d4 <malloc+0xea>
    12c4:	2d b7       	in	r18, 0x3d	; 61
    12c6:	3e b7       	in	r19, 0x3e	; 62
    12c8:	40 91 04 01 	lds	r20, 0x0104	; 0x800104 <__malloc_margin>
    12cc:	50 91 05 01 	lds	r21, 0x0105	; 0x800105 <__malloc_margin+0x1>
    12d0:	24 1b       	sub	r18, r20
    12d2:	35 0b       	sbc	r19, r21
    12d4:	e0 91 86 03 	lds	r30, 0x0386	; 0x800386 <__brkval>
    12d8:	f0 91 87 03 	lds	r31, 0x0387	; 0x800387 <__brkval+0x1>
    12dc:	e2 17       	cp	r30, r18
    12de:	f3 07       	cpc	r31, r19
    12e0:	a0 f4       	brcc	.+40     	; 0x130a <malloc+0x120>
    12e2:	2e 1b       	sub	r18, r30
    12e4:	3f 0b       	sbc	r19, r31
    12e6:	28 17       	cp	r18, r24
    12e8:	39 07       	cpc	r19, r25
    12ea:	78 f0       	brcs	.+30     	; 0x130a <malloc+0x120>
    12ec:	ac 01       	movw	r20, r24
    12ee:	4e 5f       	subi	r20, 0xFE	; 254
    12f0:	5f 4f       	sbci	r21, 0xFF	; 255
    12f2:	24 17       	cp	r18, r20
    12f4:	35 07       	cpc	r19, r21
    12f6:	48 f0       	brcs	.+18     	; 0x130a <malloc+0x120>
    12f8:	4e 0f       	add	r20, r30
    12fa:	5f 1f       	adc	r21, r31
    12fc:	50 93 87 03 	sts	0x0387, r21	; 0x800387 <__brkval+0x1>
    1300:	40 93 86 03 	sts	0x0386, r20	; 0x800386 <__brkval>
    1304:	81 93       	st	Z+, r24
    1306:	91 93       	st	Z+, r25
    1308:	02 c0       	rjmp	.+4      	; 0x130e <malloc+0x124>
    130a:	e0 e0       	ldi	r30, 0x00	; 0
    130c:	f0 e0       	ldi	r31, 0x00	; 0
    130e:	cf 01       	movw	r24, r30
    1310:	df 91       	pop	r29
    1312:	cf 91       	pop	r28
    1314:	1f 91       	pop	r17
    1316:	0f 91       	pop	r16
    1318:	08 95       	ret

0000131a <free>:
    131a:	cf 93       	push	r28
    131c:	df 93       	push	r29
    131e:	00 97       	sbiw	r24, 0x00	; 0
    1320:	09 f4       	brne	.+2      	; 0x1324 <free+0xa>
    1322:	81 c0       	rjmp	.+258    	; 0x1426 <free+0x10c>
    1324:	fc 01       	movw	r30, r24
    1326:	32 97       	sbiw	r30, 0x02	; 2
    1328:	13 82       	std	Z+3, r1	; 0x03
    132a:	12 82       	std	Z+2, r1	; 0x02
    132c:	a0 91 88 03 	lds	r26, 0x0388	; 0x800388 <__flp>
    1330:	b0 91 89 03 	lds	r27, 0x0389	; 0x800389 <__flp+0x1>
    1334:	10 97       	sbiw	r26, 0x00	; 0
    1336:	81 f4       	brne	.+32     	; 0x1358 <free+0x3e>
    1338:	20 81       	ld	r18, Z
    133a:	31 81       	ldd	r19, Z+1	; 0x01
    133c:	82 0f       	add	r24, r18
    133e:	93 1f       	adc	r25, r19
    1340:	20 91 86 03 	lds	r18, 0x0386	; 0x800386 <__brkval>
    1344:	30 91 87 03 	lds	r19, 0x0387	; 0x800387 <__brkval+0x1>
    1348:	28 17       	cp	r18, r24
    134a:	39 07       	cpc	r19, r25
    134c:	51 f5       	brne	.+84     	; 0x13a2 <free+0x88>
    134e:	f0 93 87 03 	sts	0x0387, r31	; 0x800387 <__brkval+0x1>
    1352:	e0 93 86 03 	sts	0x0386, r30	; 0x800386 <__brkval>
    1356:	67 c0       	rjmp	.+206    	; 0x1426 <free+0x10c>
    1358:	ed 01       	movw	r28, r26
    135a:	20 e0       	ldi	r18, 0x00	; 0
    135c:	30 e0       	ldi	r19, 0x00	; 0
    135e:	ce 17       	cp	r28, r30
    1360:	df 07       	cpc	r29, r31
    1362:	40 f4       	brcc	.+16     	; 0x1374 <free+0x5a>
    1364:	4a 81       	ldd	r20, Y+2	; 0x02
    1366:	5b 81       	ldd	r21, Y+3	; 0x03
    1368:	9e 01       	movw	r18, r28
    136a:	41 15       	cp	r20, r1
    136c:	51 05       	cpc	r21, r1
    136e:	f1 f0       	breq	.+60     	; 0x13ac <free+0x92>
    1370:	ea 01       	movw	r28, r20
    1372:	f5 cf       	rjmp	.-22     	; 0x135e <free+0x44>
    1374:	d3 83       	std	Z+3, r29	; 0x03
    1376:	c2 83       	std	Z+2, r28	; 0x02
    1378:	40 81       	ld	r20, Z
    137a:	51 81       	ldd	r21, Z+1	; 0x01
    137c:	84 0f       	add	r24, r20
    137e:	95 1f       	adc	r25, r21
    1380:	c8 17       	cp	r28, r24
    1382:	d9 07       	cpc	r29, r25
    1384:	59 f4       	brne	.+22     	; 0x139c <free+0x82>
    1386:	88 81       	ld	r24, Y
    1388:	99 81       	ldd	r25, Y+1	; 0x01
    138a:	84 0f       	add	r24, r20
    138c:	95 1f       	adc	r25, r21
    138e:	02 96       	adiw	r24, 0x02	; 2
    1390:	91 83       	std	Z+1, r25	; 0x01
    1392:	80 83       	st	Z, r24
    1394:	8a 81       	ldd	r24, Y+2	; 0x02
    1396:	9b 81       	ldd	r25, Y+3	; 0x03
    1398:	93 83       	std	Z+3, r25	; 0x03
    139a:	82 83       	std	Z+2, r24	; 0x02
    139c:	21 15       	cp	r18, r1
    139e:	31 05       	cpc	r19, r1
    13a0:	29 f4       	brne	.+10     	; 0x13ac <free+0x92>
    13a2:	f0 93 89 03 	sts	0x0389, r31	; 0x800389 <__flp+0x1>
    13a6:	e0 93 88 03 	sts	0x0388, r30	; 0x800388 <__flp>
    13aa:	3d c0       	rjmp	.+122    	; 0x1426 <free+0x10c>
    13ac:	e9 01       	movw	r28, r18
    13ae:	fb 83       	std	Y+3, r31	; 0x03
    13b0:	ea 83       	std	Y+2, r30	; 0x02
    13b2:	49 91       	ld	r20, Y+
    13b4:	59 91       	ld	r21, Y+
    13b6:	c4 0f       	add	r28, r20
    13b8:	d5 1f       	adc	r29, r21
    13ba:	ec 17       	cp	r30, r28
    13bc:	fd 07       	cpc	r31, r29
    13be:	61 f4       	brne	.+24     	; 0x13d8 <free+0xbe>
    13c0:	80 81       	ld	r24, Z
    13c2:	91 81       	ldd	r25, Z+1	; 0x01
    13c4:	84 0f       	add	r24, r20
    13c6:	95 1f       	adc	r25, r21
    13c8:	02 96       	adiw	r24, 0x02	; 2
    13ca:	e9 01       	movw	r28, r18
    13cc:	99 83       	std	Y+1, r25	; 0x01
    13ce:	88 83       	st	Y, r24
    13d0:	82 81       	ldd	r24, Z+2	; 0x02
    13d2:	93 81       	ldd	r25, Z+3	; 0x03
    13d4:	9b 83       	std	Y+3, r25	; 0x03
    13d6:	8a 83       	std	Y+2, r24	; 0x02
    13d8:	e0 e0       	ldi	r30, 0x00	; 0
    13da:	f0 e0       	ldi	r31, 0x00	; 0
    13dc:	12 96       	adiw	r26, 0x02	; 2
    13de:	8d 91       	ld	r24, X+
    13e0:	9c 91       	ld	r25, X
    13e2:	13 97       	sbiw	r26, 0x03	; 3
    13e4:	00 97       	sbiw	r24, 0x00	; 0
    13e6:	19 f0       	breq	.+6      	; 0x13ee <free+0xd4>
    13e8:	fd 01       	movw	r30, r26
    13ea:	dc 01       	movw	r26, r24
    13ec:	f7 cf       	rjmp	.-18     	; 0x13dc <free+0xc2>
    13ee:	8d 91       	ld	r24, X+
    13f0:	9c 91       	ld	r25, X
    13f2:	11 97       	sbiw	r26, 0x01	; 1
    13f4:	9d 01       	movw	r18, r26
    13f6:	2e 5f       	subi	r18, 0xFE	; 254
    13f8:	3f 4f       	sbci	r19, 0xFF	; 255
    13fa:	82 0f       	add	r24, r18
    13fc:	93 1f       	adc	r25, r19
    13fe:	20 91 86 03 	lds	r18, 0x0386	; 0x800386 <__brkval>
    1402:	30 91 87 03 	lds	r19, 0x0387	; 0x800387 <__brkval+0x1>
    1406:	28 17       	cp	r18, r24
    1408:	39 07       	cpc	r19, r25
    140a:	69 f4       	brne	.+26     	; 0x1426 <free+0x10c>
    140c:	30 97       	sbiw	r30, 0x00	; 0
    140e:	29 f4       	brne	.+10     	; 0x141a <free+0x100>
    1410:	10 92 89 03 	sts	0x0389, r1	; 0x800389 <__flp+0x1>
    1414:	10 92 88 03 	sts	0x0388, r1	; 0x800388 <__flp>
    1418:	02 c0       	rjmp	.+4      	; 0x141e <free+0x104>
    141a:	13 82       	std	Z+3, r1	; 0x03
    141c:	12 82       	std	Z+2, r1	; 0x02
    141e:	b0 93 87 03 	sts	0x0387, r27	; 0x800387 <__brkval+0x1>
    1422:	a0 93 86 03 	sts	0x0386, r26	; 0x800386 <__brkval>
    1426:	df 91       	pop	r29
    1428:	cf 91       	pop	r28
    142a:	08 95       	ret

0000142c <sprintf>:
    142c:	0f 93       	push	r16
    142e:	1f 93       	push	r17
    1430:	cf 93       	push	r28
    1432:	df 93       	push	r29
    1434:	cd b7       	in	r28, 0x3d	; 61
    1436:	de b7       	in	r29, 0x3e	; 62
    1438:	2e 97       	sbiw	r28, 0x0e	; 14
    143a:	0f b6       	in	r0, 0x3f	; 63
    143c:	f8 94       	cli
    143e:	de bf       	out	0x3e, r29	; 62
    1440:	0f be       	out	0x3f, r0	; 63
    1442:	cd bf       	out	0x3d, r28	; 61
    1444:	0d 89       	ldd	r16, Y+21	; 0x15
    1446:	1e 89       	ldd	r17, Y+22	; 0x16
    1448:	86 e0       	ldi	r24, 0x06	; 6
    144a:	8c 83       	std	Y+4, r24	; 0x04
    144c:	1a 83       	std	Y+2, r17	; 0x02
    144e:	09 83       	std	Y+1, r16	; 0x01
    1450:	8f ef       	ldi	r24, 0xFF	; 255
    1452:	9f e7       	ldi	r25, 0x7F	; 127
    1454:	9e 83       	std	Y+6, r25	; 0x06
    1456:	8d 83       	std	Y+5, r24	; 0x05
    1458:	ae 01       	movw	r20, r28
    145a:	47 5e       	subi	r20, 0xE7	; 231
    145c:	5f 4f       	sbci	r21, 0xFF	; 255
    145e:	6f 89       	ldd	r22, Y+23	; 0x17
    1460:	78 8d       	ldd	r23, Y+24	; 0x18
    1462:	ce 01       	movw	r24, r28
    1464:	01 96       	adiw	r24, 0x01	; 1
    1466:	10 d0       	rcall	.+32     	; 0x1488 <vfprintf>
    1468:	ef 81       	ldd	r30, Y+7	; 0x07
    146a:	f8 85       	ldd	r31, Y+8	; 0x08
    146c:	e0 0f       	add	r30, r16
    146e:	f1 1f       	adc	r31, r17
    1470:	10 82       	st	Z, r1
    1472:	2e 96       	adiw	r28, 0x0e	; 14
    1474:	0f b6       	in	r0, 0x3f	; 63
    1476:	f8 94       	cli
    1478:	de bf       	out	0x3e, r29	; 62
    147a:	0f be       	out	0x3f, r0	; 63
    147c:	cd bf       	out	0x3d, r28	; 61
    147e:	df 91       	pop	r29
    1480:	cf 91       	pop	r28
    1482:	1f 91       	pop	r17
    1484:	0f 91       	pop	r16
    1486:	08 95       	ret

00001488 <vfprintf>:
    1488:	2f 92       	push	r2
    148a:	3f 92       	push	r3
    148c:	4f 92       	push	r4
    148e:	5f 92       	push	r5
    1490:	6f 92       	push	r6
    1492:	7f 92       	push	r7
    1494:	8f 92       	push	r8
    1496:	9f 92       	push	r9
    1498:	af 92       	push	r10
    149a:	bf 92       	push	r11
    149c:	cf 92       	push	r12
    149e:	df 92       	push	r13
    14a0:	ef 92       	push	r14
    14a2:	ff 92       	push	r15
    14a4:	0f 93       	push	r16
    14a6:	1f 93       	push	r17
    14a8:	cf 93       	push	r28
    14aa:	df 93       	push	r29
    14ac:	cd b7       	in	r28, 0x3d	; 61
    14ae:	de b7       	in	r29, 0x3e	; 62
    14b0:	2b 97       	sbiw	r28, 0x0b	; 11
    14b2:	0f b6       	in	r0, 0x3f	; 63
    14b4:	f8 94       	cli
    14b6:	de bf       	out	0x3e, r29	; 62
    14b8:	0f be       	out	0x3f, r0	; 63
    14ba:	cd bf       	out	0x3d, r28	; 61
    14bc:	6c 01       	movw	r12, r24
    14be:	7b 01       	movw	r14, r22
    14c0:	8a 01       	movw	r16, r20
    14c2:	fc 01       	movw	r30, r24
    14c4:	17 82       	std	Z+7, r1	; 0x07
    14c6:	16 82       	std	Z+6, r1	; 0x06
    14c8:	83 81       	ldd	r24, Z+3	; 0x03
    14ca:	81 ff       	sbrs	r24, 1
    14cc:	bf c1       	rjmp	.+894    	; 0x184c <vfprintf+0x3c4>
    14ce:	ce 01       	movw	r24, r28
    14d0:	01 96       	adiw	r24, 0x01	; 1
    14d2:	3c 01       	movw	r6, r24
    14d4:	f6 01       	movw	r30, r12
    14d6:	93 81       	ldd	r25, Z+3	; 0x03
    14d8:	f7 01       	movw	r30, r14
    14da:	93 fd       	sbrc	r25, 3
    14dc:	85 91       	lpm	r24, Z+
    14de:	93 ff       	sbrs	r25, 3
    14e0:	81 91       	ld	r24, Z+
    14e2:	7f 01       	movw	r14, r30
    14e4:	88 23       	and	r24, r24
    14e6:	09 f4       	brne	.+2      	; 0x14ea <vfprintf+0x62>
    14e8:	ad c1       	rjmp	.+858    	; 0x1844 <vfprintf+0x3bc>
    14ea:	85 32       	cpi	r24, 0x25	; 37
    14ec:	39 f4       	brne	.+14     	; 0x14fc <vfprintf+0x74>
    14ee:	93 fd       	sbrc	r25, 3
    14f0:	85 91       	lpm	r24, Z+
    14f2:	93 ff       	sbrs	r25, 3
    14f4:	81 91       	ld	r24, Z+
    14f6:	7f 01       	movw	r14, r30
    14f8:	85 32       	cpi	r24, 0x25	; 37
    14fa:	21 f4       	brne	.+8      	; 0x1504 <vfprintf+0x7c>
    14fc:	b6 01       	movw	r22, r12
    14fe:	90 e0       	ldi	r25, 0x00	; 0
    1500:	d6 d1       	rcall	.+940    	; 0x18ae <fputc>
    1502:	e8 cf       	rjmp	.-48     	; 0x14d4 <vfprintf+0x4c>
    1504:	91 2c       	mov	r9, r1
    1506:	21 2c       	mov	r2, r1
    1508:	31 2c       	mov	r3, r1
    150a:	ff e1       	ldi	r31, 0x1F	; 31
    150c:	f3 15       	cp	r31, r3
    150e:	d8 f0       	brcs	.+54     	; 0x1546 <vfprintf+0xbe>
    1510:	8b 32       	cpi	r24, 0x2B	; 43
    1512:	79 f0       	breq	.+30     	; 0x1532 <vfprintf+0xaa>
    1514:	38 f4       	brcc	.+14     	; 0x1524 <vfprintf+0x9c>
    1516:	80 32       	cpi	r24, 0x20	; 32
    1518:	79 f0       	breq	.+30     	; 0x1538 <vfprintf+0xb0>
    151a:	83 32       	cpi	r24, 0x23	; 35
    151c:	a1 f4       	brne	.+40     	; 0x1546 <vfprintf+0xbe>
    151e:	23 2d       	mov	r18, r3
    1520:	20 61       	ori	r18, 0x10	; 16
    1522:	1d c0       	rjmp	.+58     	; 0x155e <vfprintf+0xd6>
    1524:	8d 32       	cpi	r24, 0x2D	; 45
    1526:	61 f0       	breq	.+24     	; 0x1540 <vfprintf+0xb8>
    1528:	80 33       	cpi	r24, 0x30	; 48
    152a:	69 f4       	brne	.+26     	; 0x1546 <vfprintf+0xbe>
    152c:	23 2d       	mov	r18, r3
    152e:	21 60       	ori	r18, 0x01	; 1
    1530:	16 c0       	rjmp	.+44     	; 0x155e <vfprintf+0xd6>
    1532:	83 2d       	mov	r24, r3
    1534:	82 60       	ori	r24, 0x02	; 2
    1536:	38 2e       	mov	r3, r24
    1538:	e3 2d       	mov	r30, r3
    153a:	e4 60       	ori	r30, 0x04	; 4
    153c:	3e 2e       	mov	r3, r30
    153e:	2a c0       	rjmp	.+84     	; 0x1594 <vfprintf+0x10c>
    1540:	f3 2d       	mov	r31, r3
    1542:	f8 60       	ori	r31, 0x08	; 8
    1544:	1d c0       	rjmp	.+58     	; 0x1580 <vfprintf+0xf8>
    1546:	37 fc       	sbrc	r3, 7
    1548:	2d c0       	rjmp	.+90     	; 0x15a4 <vfprintf+0x11c>
    154a:	20 ed       	ldi	r18, 0xD0	; 208
    154c:	28 0f       	add	r18, r24
    154e:	2a 30       	cpi	r18, 0x0A	; 10
    1550:	40 f0       	brcs	.+16     	; 0x1562 <vfprintf+0xda>
    1552:	8e 32       	cpi	r24, 0x2E	; 46
    1554:	b9 f4       	brne	.+46     	; 0x1584 <vfprintf+0xfc>
    1556:	36 fc       	sbrc	r3, 6
    1558:	75 c1       	rjmp	.+746    	; 0x1844 <vfprintf+0x3bc>
    155a:	23 2d       	mov	r18, r3
    155c:	20 64       	ori	r18, 0x40	; 64
    155e:	32 2e       	mov	r3, r18
    1560:	19 c0       	rjmp	.+50     	; 0x1594 <vfprintf+0x10c>
    1562:	36 fe       	sbrs	r3, 6
    1564:	06 c0       	rjmp	.+12     	; 0x1572 <vfprintf+0xea>
    1566:	8a e0       	ldi	r24, 0x0A	; 10
    1568:	98 9e       	mul	r9, r24
    156a:	20 0d       	add	r18, r0
    156c:	11 24       	eor	r1, r1
    156e:	92 2e       	mov	r9, r18
    1570:	11 c0       	rjmp	.+34     	; 0x1594 <vfprintf+0x10c>
    1572:	ea e0       	ldi	r30, 0x0A	; 10
    1574:	2e 9e       	mul	r2, r30
    1576:	20 0d       	add	r18, r0
    1578:	11 24       	eor	r1, r1
    157a:	22 2e       	mov	r2, r18
    157c:	f3 2d       	mov	r31, r3
    157e:	f0 62       	ori	r31, 0x20	; 32
    1580:	3f 2e       	mov	r3, r31
    1582:	08 c0       	rjmp	.+16     	; 0x1594 <vfprintf+0x10c>
    1584:	8c 36       	cpi	r24, 0x6C	; 108
    1586:	21 f4       	brne	.+8      	; 0x1590 <vfprintf+0x108>
    1588:	83 2d       	mov	r24, r3
    158a:	80 68       	ori	r24, 0x80	; 128
    158c:	38 2e       	mov	r3, r24
    158e:	02 c0       	rjmp	.+4      	; 0x1594 <vfprintf+0x10c>
    1590:	88 36       	cpi	r24, 0x68	; 104
    1592:	41 f4       	brne	.+16     	; 0x15a4 <vfprintf+0x11c>
    1594:	f7 01       	movw	r30, r14
    1596:	93 fd       	sbrc	r25, 3
    1598:	85 91       	lpm	r24, Z+
    159a:	93 ff       	sbrs	r25, 3
    159c:	81 91       	ld	r24, Z+
    159e:	7f 01       	movw	r14, r30
    15a0:	81 11       	cpse	r24, r1
    15a2:	b3 cf       	rjmp	.-154    	; 0x150a <vfprintf+0x82>
    15a4:	98 2f       	mov	r25, r24
    15a6:	9f 7d       	andi	r25, 0xDF	; 223
    15a8:	95 54       	subi	r25, 0x45	; 69
    15aa:	93 30       	cpi	r25, 0x03	; 3
    15ac:	28 f4       	brcc	.+10     	; 0x15b8 <vfprintf+0x130>
    15ae:	0c 5f       	subi	r16, 0xFC	; 252
    15b0:	1f 4f       	sbci	r17, 0xFF	; 255
    15b2:	9f e3       	ldi	r25, 0x3F	; 63
    15b4:	99 83       	std	Y+1, r25	; 0x01
    15b6:	0d c0       	rjmp	.+26     	; 0x15d2 <vfprintf+0x14a>
    15b8:	83 36       	cpi	r24, 0x63	; 99
    15ba:	31 f0       	breq	.+12     	; 0x15c8 <vfprintf+0x140>
    15bc:	83 37       	cpi	r24, 0x73	; 115
    15be:	71 f0       	breq	.+28     	; 0x15dc <vfprintf+0x154>
    15c0:	83 35       	cpi	r24, 0x53	; 83
    15c2:	09 f0       	breq	.+2      	; 0x15c6 <vfprintf+0x13e>
    15c4:	55 c0       	rjmp	.+170    	; 0x1670 <vfprintf+0x1e8>
    15c6:	20 c0       	rjmp	.+64     	; 0x1608 <vfprintf+0x180>
    15c8:	f8 01       	movw	r30, r16
    15ca:	80 81       	ld	r24, Z
    15cc:	89 83       	std	Y+1, r24	; 0x01
    15ce:	0e 5f       	subi	r16, 0xFE	; 254
    15d0:	1f 4f       	sbci	r17, 0xFF	; 255
    15d2:	88 24       	eor	r8, r8
    15d4:	83 94       	inc	r8
    15d6:	91 2c       	mov	r9, r1
    15d8:	53 01       	movw	r10, r6
    15da:	12 c0       	rjmp	.+36     	; 0x1600 <vfprintf+0x178>
    15dc:	28 01       	movw	r4, r16
    15de:	f2 e0       	ldi	r31, 0x02	; 2
    15e0:	4f 0e       	add	r4, r31
    15e2:	51 1c       	adc	r5, r1
    15e4:	f8 01       	movw	r30, r16
    15e6:	a0 80       	ld	r10, Z
    15e8:	b1 80       	ldd	r11, Z+1	; 0x01
    15ea:	36 fe       	sbrs	r3, 6
    15ec:	03 c0       	rjmp	.+6      	; 0x15f4 <vfprintf+0x16c>
    15ee:	69 2d       	mov	r22, r9
    15f0:	70 e0       	ldi	r23, 0x00	; 0
    15f2:	02 c0       	rjmp	.+4      	; 0x15f8 <vfprintf+0x170>
    15f4:	6f ef       	ldi	r22, 0xFF	; 255
    15f6:	7f ef       	ldi	r23, 0xFF	; 255
    15f8:	c5 01       	movw	r24, r10
    15fa:	4e d1       	rcall	.+668    	; 0x1898 <strnlen>
    15fc:	4c 01       	movw	r8, r24
    15fe:	82 01       	movw	r16, r4
    1600:	f3 2d       	mov	r31, r3
    1602:	ff 77       	andi	r31, 0x7F	; 127
    1604:	3f 2e       	mov	r3, r31
    1606:	15 c0       	rjmp	.+42     	; 0x1632 <vfprintf+0x1aa>
    1608:	28 01       	movw	r4, r16
    160a:	22 e0       	ldi	r18, 0x02	; 2
    160c:	42 0e       	add	r4, r18
    160e:	51 1c       	adc	r5, r1
    1610:	f8 01       	movw	r30, r16
    1612:	a0 80       	ld	r10, Z
    1614:	b1 80       	ldd	r11, Z+1	; 0x01
    1616:	36 fe       	sbrs	r3, 6
    1618:	03 c0       	rjmp	.+6      	; 0x1620 <vfprintf+0x198>
    161a:	69 2d       	mov	r22, r9
    161c:	70 e0       	ldi	r23, 0x00	; 0
    161e:	02 c0       	rjmp	.+4      	; 0x1624 <vfprintf+0x19c>
    1620:	6f ef       	ldi	r22, 0xFF	; 255
    1622:	7f ef       	ldi	r23, 0xFF	; 255
    1624:	c5 01       	movw	r24, r10
    1626:	2d d1       	rcall	.+602    	; 0x1882 <strnlen_P>
    1628:	4c 01       	movw	r8, r24
    162a:	f3 2d       	mov	r31, r3
    162c:	f0 68       	ori	r31, 0x80	; 128
    162e:	3f 2e       	mov	r3, r31
    1630:	82 01       	movw	r16, r4
    1632:	33 fc       	sbrc	r3, 3
    1634:	19 c0       	rjmp	.+50     	; 0x1668 <vfprintf+0x1e0>
    1636:	82 2d       	mov	r24, r2
    1638:	90 e0       	ldi	r25, 0x00	; 0
    163a:	88 16       	cp	r8, r24
    163c:	99 06       	cpc	r9, r25
    163e:	a0 f4       	brcc	.+40     	; 0x1668 <vfprintf+0x1e0>
    1640:	b6 01       	movw	r22, r12
    1642:	80 e2       	ldi	r24, 0x20	; 32
    1644:	90 e0       	ldi	r25, 0x00	; 0
    1646:	33 d1       	rcall	.+614    	; 0x18ae <fputc>
    1648:	2a 94       	dec	r2
    164a:	f5 cf       	rjmp	.-22     	; 0x1636 <vfprintf+0x1ae>
    164c:	f5 01       	movw	r30, r10
    164e:	37 fc       	sbrc	r3, 7
    1650:	85 91       	lpm	r24, Z+
    1652:	37 fe       	sbrs	r3, 7
    1654:	81 91       	ld	r24, Z+
    1656:	5f 01       	movw	r10, r30
    1658:	b6 01       	movw	r22, r12
    165a:	90 e0       	ldi	r25, 0x00	; 0
    165c:	28 d1       	rcall	.+592    	; 0x18ae <fputc>
    165e:	21 10       	cpse	r2, r1
    1660:	2a 94       	dec	r2
    1662:	21 e0       	ldi	r18, 0x01	; 1
    1664:	82 1a       	sub	r8, r18
    1666:	91 08       	sbc	r9, r1
    1668:	81 14       	cp	r8, r1
    166a:	91 04       	cpc	r9, r1
    166c:	79 f7       	brne	.-34     	; 0x164c <vfprintf+0x1c4>
    166e:	e1 c0       	rjmp	.+450    	; 0x1832 <vfprintf+0x3aa>
    1670:	84 36       	cpi	r24, 0x64	; 100
    1672:	11 f0       	breq	.+4      	; 0x1678 <vfprintf+0x1f0>
    1674:	89 36       	cpi	r24, 0x69	; 105
    1676:	39 f5       	brne	.+78     	; 0x16c6 <vfprintf+0x23e>
    1678:	f8 01       	movw	r30, r16
    167a:	37 fe       	sbrs	r3, 7
    167c:	07 c0       	rjmp	.+14     	; 0x168c <vfprintf+0x204>
    167e:	60 81       	ld	r22, Z
    1680:	71 81       	ldd	r23, Z+1	; 0x01
    1682:	82 81       	ldd	r24, Z+2	; 0x02
    1684:	93 81       	ldd	r25, Z+3	; 0x03
    1686:	0c 5f       	subi	r16, 0xFC	; 252
    1688:	1f 4f       	sbci	r17, 0xFF	; 255
    168a:	08 c0       	rjmp	.+16     	; 0x169c <vfprintf+0x214>
    168c:	60 81       	ld	r22, Z
    168e:	71 81       	ldd	r23, Z+1	; 0x01
    1690:	07 2e       	mov	r0, r23
    1692:	00 0c       	add	r0, r0
    1694:	88 0b       	sbc	r24, r24
    1696:	99 0b       	sbc	r25, r25
    1698:	0e 5f       	subi	r16, 0xFE	; 254
    169a:	1f 4f       	sbci	r17, 0xFF	; 255
    169c:	f3 2d       	mov	r31, r3
    169e:	ff 76       	andi	r31, 0x6F	; 111
    16a0:	3f 2e       	mov	r3, r31
    16a2:	97 ff       	sbrs	r25, 7
    16a4:	09 c0       	rjmp	.+18     	; 0x16b8 <vfprintf+0x230>
    16a6:	90 95       	com	r25
    16a8:	80 95       	com	r24
    16aa:	70 95       	com	r23
    16ac:	61 95       	neg	r22
    16ae:	7f 4f       	sbci	r23, 0xFF	; 255
    16b0:	8f 4f       	sbci	r24, 0xFF	; 255
    16b2:	9f 4f       	sbci	r25, 0xFF	; 255
    16b4:	f0 68       	ori	r31, 0x80	; 128
    16b6:	3f 2e       	mov	r3, r31
    16b8:	2a e0       	ldi	r18, 0x0A	; 10
    16ba:	30 e0       	ldi	r19, 0x00	; 0
    16bc:	a3 01       	movw	r20, r6
    16be:	33 d1       	rcall	.+614    	; 0x1926 <__ultoa_invert>
    16c0:	88 2e       	mov	r8, r24
    16c2:	86 18       	sub	r8, r6
    16c4:	44 c0       	rjmp	.+136    	; 0x174e <vfprintf+0x2c6>
    16c6:	85 37       	cpi	r24, 0x75	; 117
    16c8:	31 f4       	brne	.+12     	; 0x16d6 <vfprintf+0x24e>
    16ca:	23 2d       	mov	r18, r3
    16cc:	2f 7e       	andi	r18, 0xEF	; 239
    16ce:	b2 2e       	mov	r11, r18
    16d0:	2a e0       	ldi	r18, 0x0A	; 10
    16d2:	30 e0       	ldi	r19, 0x00	; 0
    16d4:	25 c0       	rjmp	.+74     	; 0x1720 <vfprintf+0x298>
    16d6:	93 2d       	mov	r25, r3
    16d8:	99 7f       	andi	r25, 0xF9	; 249
    16da:	b9 2e       	mov	r11, r25
    16dc:	8f 36       	cpi	r24, 0x6F	; 111
    16de:	c1 f0       	breq	.+48     	; 0x1710 <vfprintf+0x288>
    16e0:	18 f4       	brcc	.+6      	; 0x16e8 <vfprintf+0x260>
    16e2:	88 35       	cpi	r24, 0x58	; 88
    16e4:	79 f0       	breq	.+30     	; 0x1704 <vfprintf+0x27c>
    16e6:	ae c0       	rjmp	.+348    	; 0x1844 <vfprintf+0x3bc>
    16e8:	80 37       	cpi	r24, 0x70	; 112
    16ea:	19 f0       	breq	.+6      	; 0x16f2 <vfprintf+0x26a>
    16ec:	88 37       	cpi	r24, 0x78	; 120
    16ee:	21 f0       	breq	.+8      	; 0x16f8 <vfprintf+0x270>
    16f0:	a9 c0       	rjmp	.+338    	; 0x1844 <vfprintf+0x3bc>
    16f2:	e9 2f       	mov	r30, r25
    16f4:	e0 61       	ori	r30, 0x10	; 16
    16f6:	be 2e       	mov	r11, r30
    16f8:	b4 fe       	sbrs	r11, 4
    16fa:	0d c0       	rjmp	.+26     	; 0x1716 <vfprintf+0x28e>
    16fc:	fb 2d       	mov	r31, r11
    16fe:	f4 60       	ori	r31, 0x04	; 4
    1700:	bf 2e       	mov	r11, r31
    1702:	09 c0       	rjmp	.+18     	; 0x1716 <vfprintf+0x28e>
    1704:	34 fe       	sbrs	r3, 4
    1706:	0a c0       	rjmp	.+20     	; 0x171c <vfprintf+0x294>
    1708:	29 2f       	mov	r18, r25
    170a:	26 60       	ori	r18, 0x06	; 6
    170c:	b2 2e       	mov	r11, r18
    170e:	06 c0       	rjmp	.+12     	; 0x171c <vfprintf+0x294>
    1710:	28 e0       	ldi	r18, 0x08	; 8
    1712:	30 e0       	ldi	r19, 0x00	; 0
    1714:	05 c0       	rjmp	.+10     	; 0x1720 <vfprintf+0x298>
    1716:	20 e1       	ldi	r18, 0x10	; 16
    1718:	30 e0       	ldi	r19, 0x00	; 0
    171a:	02 c0       	rjmp	.+4      	; 0x1720 <vfprintf+0x298>
    171c:	20 e1       	ldi	r18, 0x10	; 16
    171e:	32 e0       	ldi	r19, 0x02	; 2
    1720:	f8 01       	movw	r30, r16
    1722:	b7 fe       	sbrs	r11, 7
    1724:	07 c0       	rjmp	.+14     	; 0x1734 <vfprintf+0x2ac>
    1726:	60 81       	ld	r22, Z
    1728:	71 81       	ldd	r23, Z+1	; 0x01
    172a:	82 81       	ldd	r24, Z+2	; 0x02
    172c:	93 81       	ldd	r25, Z+3	; 0x03
    172e:	0c 5f       	subi	r16, 0xFC	; 252
    1730:	1f 4f       	sbci	r17, 0xFF	; 255
    1732:	06 c0       	rjmp	.+12     	; 0x1740 <vfprintf+0x2b8>
    1734:	60 81       	ld	r22, Z
    1736:	71 81       	ldd	r23, Z+1	; 0x01
    1738:	80 e0       	ldi	r24, 0x00	; 0
    173a:	90 e0       	ldi	r25, 0x00	; 0
    173c:	0e 5f       	subi	r16, 0xFE	; 254
    173e:	1f 4f       	sbci	r17, 0xFF	; 255
    1740:	a3 01       	movw	r20, r6
    1742:	f1 d0       	rcall	.+482    	; 0x1926 <__ultoa_invert>
    1744:	88 2e       	mov	r8, r24
    1746:	86 18       	sub	r8, r6
    1748:	fb 2d       	mov	r31, r11
    174a:	ff 77       	andi	r31, 0x7F	; 127
    174c:	3f 2e       	mov	r3, r31
    174e:	36 fe       	sbrs	r3, 6
    1750:	0d c0       	rjmp	.+26     	; 0x176c <vfprintf+0x2e4>
    1752:	23 2d       	mov	r18, r3
    1754:	2e 7f       	andi	r18, 0xFE	; 254
    1756:	a2 2e       	mov	r10, r18
    1758:	89 14       	cp	r8, r9
    175a:	58 f4       	brcc	.+22     	; 0x1772 <vfprintf+0x2ea>
    175c:	34 fe       	sbrs	r3, 4
    175e:	0b c0       	rjmp	.+22     	; 0x1776 <vfprintf+0x2ee>
    1760:	32 fc       	sbrc	r3, 2
    1762:	09 c0       	rjmp	.+18     	; 0x1776 <vfprintf+0x2ee>
    1764:	83 2d       	mov	r24, r3
    1766:	8e 7e       	andi	r24, 0xEE	; 238
    1768:	a8 2e       	mov	r10, r24
    176a:	05 c0       	rjmp	.+10     	; 0x1776 <vfprintf+0x2ee>
    176c:	b8 2c       	mov	r11, r8
    176e:	a3 2c       	mov	r10, r3
    1770:	03 c0       	rjmp	.+6      	; 0x1778 <vfprintf+0x2f0>
    1772:	b8 2c       	mov	r11, r8
    1774:	01 c0       	rjmp	.+2      	; 0x1778 <vfprintf+0x2f0>
    1776:	b9 2c       	mov	r11, r9
    1778:	a4 fe       	sbrs	r10, 4
    177a:	0f c0       	rjmp	.+30     	; 0x179a <vfprintf+0x312>
    177c:	fe 01       	movw	r30, r28
    177e:	e8 0d       	add	r30, r8
    1780:	f1 1d       	adc	r31, r1
    1782:	80 81       	ld	r24, Z
    1784:	80 33       	cpi	r24, 0x30	; 48
    1786:	21 f4       	brne	.+8      	; 0x1790 <vfprintf+0x308>
    1788:	9a 2d       	mov	r25, r10
    178a:	99 7e       	andi	r25, 0xE9	; 233
    178c:	a9 2e       	mov	r10, r25
    178e:	09 c0       	rjmp	.+18     	; 0x17a2 <vfprintf+0x31a>
    1790:	a2 fe       	sbrs	r10, 2
    1792:	06 c0       	rjmp	.+12     	; 0x17a0 <vfprintf+0x318>
    1794:	b3 94       	inc	r11
    1796:	b3 94       	inc	r11
    1798:	04 c0       	rjmp	.+8      	; 0x17a2 <vfprintf+0x31a>
    179a:	8a 2d       	mov	r24, r10
    179c:	86 78       	andi	r24, 0x86	; 134
    179e:	09 f0       	breq	.+2      	; 0x17a2 <vfprintf+0x31a>
    17a0:	b3 94       	inc	r11
    17a2:	a3 fc       	sbrc	r10, 3
    17a4:	10 c0       	rjmp	.+32     	; 0x17c6 <vfprintf+0x33e>
    17a6:	a0 fe       	sbrs	r10, 0
    17a8:	06 c0       	rjmp	.+12     	; 0x17b6 <vfprintf+0x32e>
    17aa:	b2 14       	cp	r11, r2
    17ac:	80 f4       	brcc	.+32     	; 0x17ce <vfprintf+0x346>
    17ae:	28 0c       	add	r2, r8
    17b0:	92 2c       	mov	r9, r2
    17b2:	9b 18       	sub	r9, r11
    17b4:	0d c0       	rjmp	.+26     	; 0x17d0 <vfprintf+0x348>
    17b6:	b2 14       	cp	r11, r2
    17b8:	58 f4       	brcc	.+22     	; 0x17d0 <vfprintf+0x348>
    17ba:	b6 01       	movw	r22, r12
    17bc:	80 e2       	ldi	r24, 0x20	; 32
    17be:	90 e0       	ldi	r25, 0x00	; 0
    17c0:	76 d0       	rcall	.+236    	; 0x18ae <fputc>
    17c2:	b3 94       	inc	r11
    17c4:	f8 cf       	rjmp	.-16     	; 0x17b6 <vfprintf+0x32e>
    17c6:	b2 14       	cp	r11, r2
    17c8:	18 f4       	brcc	.+6      	; 0x17d0 <vfprintf+0x348>
    17ca:	2b 18       	sub	r2, r11
    17cc:	02 c0       	rjmp	.+4      	; 0x17d2 <vfprintf+0x34a>
    17ce:	98 2c       	mov	r9, r8
    17d0:	21 2c       	mov	r2, r1
    17d2:	a4 fe       	sbrs	r10, 4
    17d4:	0f c0       	rjmp	.+30     	; 0x17f4 <vfprintf+0x36c>
    17d6:	b6 01       	movw	r22, r12
    17d8:	80 e3       	ldi	r24, 0x30	; 48
    17da:	90 e0       	ldi	r25, 0x00	; 0
    17dc:	68 d0       	rcall	.+208    	; 0x18ae <fputc>
    17de:	a2 fe       	sbrs	r10, 2
    17e0:	16 c0       	rjmp	.+44     	; 0x180e <vfprintf+0x386>
    17e2:	a1 fc       	sbrc	r10, 1
    17e4:	03 c0       	rjmp	.+6      	; 0x17ec <vfprintf+0x364>
    17e6:	88 e7       	ldi	r24, 0x78	; 120
    17e8:	90 e0       	ldi	r25, 0x00	; 0
    17ea:	02 c0       	rjmp	.+4      	; 0x17f0 <vfprintf+0x368>
    17ec:	88 e5       	ldi	r24, 0x58	; 88
    17ee:	90 e0       	ldi	r25, 0x00	; 0
    17f0:	b6 01       	movw	r22, r12
    17f2:	0c c0       	rjmp	.+24     	; 0x180c <vfprintf+0x384>
    17f4:	8a 2d       	mov	r24, r10
    17f6:	86 78       	andi	r24, 0x86	; 134
    17f8:	51 f0       	breq	.+20     	; 0x180e <vfprintf+0x386>
    17fa:	a1 fe       	sbrs	r10, 1
    17fc:	02 c0       	rjmp	.+4      	; 0x1802 <vfprintf+0x37a>
    17fe:	8b e2       	ldi	r24, 0x2B	; 43
    1800:	01 c0       	rjmp	.+2      	; 0x1804 <vfprintf+0x37c>
    1802:	80 e2       	ldi	r24, 0x20	; 32
    1804:	a7 fc       	sbrc	r10, 7
    1806:	8d e2       	ldi	r24, 0x2D	; 45
    1808:	b6 01       	movw	r22, r12
    180a:	90 e0       	ldi	r25, 0x00	; 0
    180c:	50 d0       	rcall	.+160    	; 0x18ae <fputc>
    180e:	89 14       	cp	r8, r9
    1810:	30 f4       	brcc	.+12     	; 0x181e <vfprintf+0x396>
    1812:	b6 01       	movw	r22, r12
    1814:	80 e3       	ldi	r24, 0x30	; 48
    1816:	90 e0       	ldi	r25, 0x00	; 0
    1818:	4a d0       	rcall	.+148    	; 0x18ae <fputc>
    181a:	9a 94       	dec	r9
    181c:	f8 cf       	rjmp	.-16     	; 0x180e <vfprintf+0x386>
    181e:	8a 94       	dec	r8
    1820:	f3 01       	movw	r30, r6
    1822:	e8 0d       	add	r30, r8
    1824:	f1 1d       	adc	r31, r1
    1826:	80 81       	ld	r24, Z
    1828:	b6 01       	movw	r22, r12
    182a:	90 e0       	ldi	r25, 0x00	; 0
    182c:	40 d0       	rcall	.+128    	; 0x18ae <fputc>
    182e:	81 10       	cpse	r8, r1
    1830:	f6 cf       	rjmp	.-20     	; 0x181e <vfprintf+0x396>
    1832:	22 20       	and	r2, r2
    1834:	09 f4       	brne	.+2      	; 0x1838 <vfprintf+0x3b0>
    1836:	4e ce       	rjmp	.-868    	; 0x14d4 <vfprintf+0x4c>
    1838:	b6 01       	movw	r22, r12
    183a:	80 e2       	ldi	r24, 0x20	; 32
    183c:	90 e0       	ldi	r25, 0x00	; 0
    183e:	37 d0       	rcall	.+110    	; 0x18ae <fputc>
    1840:	2a 94       	dec	r2
    1842:	f7 cf       	rjmp	.-18     	; 0x1832 <vfprintf+0x3aa>
    1844:	f6 01       	movw	r30, r12
    1846:	86 81       	ldd	r24, Z+6	; 0x06
    1848:	97 81       	ldd	r25, Z+7	; 0x07
    184a:	02 c0       	rjmp	.+4      	; 0x1850 <vfprintf+0x3c8>
    184c:	8f ef       	ldi	r24, 0xFF	; 255
    184e:	9f ef       	ldi	r25, 0xFF	; 255
    1850:	2b 96       	adiw	r28, 0x0b	; 11
    1852:	0f b6       	in	r0, 0x3f	; 63
    1854:	f8 94       	cli
    1856:	de bf       	out	0x3e, r29	; 62
    1858:	0f be       	out	0x3f, r0	; 63
    185a:	cd bf       	out	0x3d, r28	; 61
    185c:	df 91       	pop	r29
    185e:	cf 91       	pop	r28
    1860:	1f 91       	pop	r17
    1862:	0f 91       	pop	r16
    1864:	ff 90       	pop	r15
    1866:	ef 90       	pop	r14
    1868:	df 90       	pop	r13
    186a:	cf 90       	pop	r12
    186c:	bf 90       	pop	r11
    186e:	af 90       	pop	r10
    1870:	9f 90       	pop	r9
    1872:	8f 90       	pop	r8
    1874:	7f 90       	pop	r7
    1876:	6f 90       	pop	r6
    1878:	5f 90       	pop	r5
    187a:	4f 90       	pop	r4
    187c:	3f 90       	pop	r3
    187e:	2f 90       	pop	r2
    1880:	08 95       	ret

00001882 <strnlen_P>:
    1882:	fc 01       	movw	r30, r24
    1884:	05 90       	lpm	r0, Z+
    1886:	61 50       	subi	r22, 0x01	; 1
    1888:	70 40       	sbci	r23, 0x00	; 0
    188a:	01 10       	cpse	r0, r1
    188c:	d8 f7       	brcc	.-10     	; 0x1884 <strnlen_P+0x2>
    188e:	80 95       	com	r24
    1890:	90 95       	com	r25
    1892:	8e 0f       	add	r24, r30
    1894:	9f 1f       	adc	r25, r31
    1896:	08 95       	ret

00001898 <strnlen>:
    1898:	fc 01       	movw	r30, r24
    189a:	61 50       	subi	r22, 0x01	; 1
    189c:	70 40       	sbci	r23, 0x00	; 0
    189e:	01 90       	ld	r0, Z+
    18a0:	01 10       	cpse	r0, r1
    18a2:	d8 f7       	brcc	.-10     	; 0x189a <strnlen+0x2>
    18a4:	80 95       	com	r24
    18a6:	90 95       	com	r25
    18a8:	8e 0f       	add	r24, r30
    18aa:	9f 1f       	adc	r25, r31
    18ac:	08 95       	ret

000018ae <fputc>:
    18ae:	0f 93       	push	r16
    18b0:	1f 93       	push	r17
    18b2:	cf 93       	push	r28
    18b4:	df 93       	push	r29
    18b6:	fb 01       	movw	r30, r22
    18b8:	23 81       	ldd	r18, Z+3	; 0x03
    18ba:	21 fd       	sbrc	r18, 1
    18bc:	03 c0       	rjmp	.+6      	; 0x18c4 <fputc+0x16>
    18be:	8f ef       	ldi	r24, 0xFF	; 255
    18c0:	9f ef       	ldi	r25, 0xFF	; 255
    18c2:	2c c0       	rjmp	.+88     	; 0x191c <fputc+0x6e>
    18c4:	22 ff       	sbrs	r18, 2
    18c6:	16 c0       	rjmp	.+44     	; 0x18f4 <fputc+0x46>
    18c8:	46 81       	ldd	r20, Z+6	; 0x06
    18ca:	57 81       	ldd	r21, Z+7	; 0x07
    18cc:	24 81       	ldd	r18, Z+4	; 0x04
    18ce:	35 81       	ldd	r19, Z+5	; 0x05
    18d0:	42 17       	cp	r20, r18
    18d2:	53 07       	cpc	r21, r19
    18d4:	44 f4       	brge	.+16     	; 0x18e6 <fputc+0x38>
    18d6:	a0 81       	ld	r26, Z
    18d8:	b1 81       	ldd	r27, Z+1	; 0x01
    18da:	9d 01       	movw	r18, r26
    18dc:	2f 5f       	subi	r18, 0xFF	; 255
    18de:	3f 4f       	sbci	r19, 0xFF	; 255
    18e0:	31 83       	std	Z+1, r19	; 0x01
    18e2:	20 83       	st	Z, r18
    18e4:	8c 93       	st	X, r24
    18e6:	26 81       	ldd	r18, Z+6	; 0x06
    18e8:	37 81       	ldd	r19, Z+7	; 0x07
    18ea:	2f 5f       	subi	r18, 0xFF	; 255
    18ec:	3f 4f       	sbci	r19, 0xFF	; 255
    18ee:	37 83       	std	Z+7, r19	; 0x07
    18f0:	26 83       	std	Z+6, r18	; 0x06
    18f2:	14 c0       	rjmp	.+40     	; 0x191c <fputc+0x6e>
    18f4:	8b 01       	movw	r16, r22
    18f6:	ec 01       	movw	r28, r24
    18f8:	fb 01       	movw	r30, r22
    18fa:	00 84       	ldd	r0, Z+8	; 0x08
    18fc:	f1 85       	ldd	r31, Z+9	; 0x09
    18fe:	e0 2d       	mov	r30, r0
    1900:	09 95       	icall
    1902:	89 2b       	or	r24, r25
    1904:	e1 f6       	brne	.-72     	; 0x18be <fputc+0x10>
    1906:	d8 01       	movw	r26, r16
    1908:	16 96       	adiw	r26, 0x06	; 6
    190a:	8d 91       	ld	r24, X+
    190c:	9c 91       	ld	r25, X
    190e:	17 97       	sbiw	r26, 0x07	; 7
    1910:	01 96       	adiw	r24, 0x01	; 1
    1912:	17 96       	adiw	r26, 0x07	; 7
    1914:	9c 93       	st	X, r25
    1916:	8e 93       	st	-X, r24
    1918:	16 97       	sbiw	r26, 0x06	; 6
    191a:	ce 01       	movw	r24, r28
    191c:	df 91       	pop	r29
    191e:	cf 91       	pop	r28
    1920:	1f 91       	pop	r17
    1922:	0f 91       	pop	r16
    1924:	08 95       	ret

00001926 <__ultoa_invert>:
    1926:	fa 01       	movw	r30, r20
    1928:	aa 27       	eor	r26, r26
    192a:	28 30       	cpi	r18, 0x08	; 8
    192c:	51 f1       	breq	.+84     	; 0x1982 <__ultoa_invert+0x5c>
    192e:	20 31       	cpi	r18, 0x10	; 16
    1930:	81 f1       	breq	.+96     	; 0x1992 <__ultoa_invert+0x6c>
    1932:	e8 94       	clt
    1934:	6f 93       	push	r22
    1936:	6e 7f       	andi	r22, 0xFE	; 254
    1938:	6e 5f       	subi	r22, 0xFE	; 254
    193a:	7f 4f       	sbci	r23, 0xFF	; 255
    193c:	8f 4f       	sbci	r24, 0xFF	; 255
    193e:	9f 4f       	sbci	r25, 0xFF	; 255
    1940:	af 4f       	sbci	r26, 0xFF	; 255
    1942:	b1 e0       	ldi	r27, 0x01	; 1
    1944:	3e d0       	rcall	.+124    	; 0x19c2 <__ultoa_invert+0x9c>
    1946:	b4 e0       	ldi	r27, 0x04	; 4
    1948:	3c d0       	rcall	.+120    	; 0x19c2 <__ultoa_invert+0x9c>
    194a:	67 0f       	add	r22, r23
    194c:	78 1f       	adc	r23, r24
    194e:	89 1f       	adc	r24, r25
    1950:	9a 1f       	adc	r25, r26
    1952:	a1 1d       	adc	r26, r1
    1954:	68 0f       	add	r22, r24
    1956:	79 1f       	adc	r23, r25
    1958:	8a 1f       	adc	r24, r26
    195a:	91 1d       	adc	r25, r1
    195c:	a1 1d       	adc	r26, r1
    195e:	6a 0f       	add	r22, r26
    1960:	71 1d       	adc	r23, r1
    1962:	81 1d       	adc	r24, r1
    1964:	91 1d       	adc	r25, r1
    1966:	a1 1d       	adc	r26, r1
    1968:	20 d0       	rcall	.+64     	; 0x19aa <__ultoa_invert+0x84>
    196a:	09 f4       	brne	.+2      	; 0x196e <__ultoa_invert+0x48>
    196c:	68 94       	set
    196e:	3f 91       	pop	r19
    1970:	2a e0       	ldi	r18, 0x0A	; 10
    1972:	26 9f       	mul	r18, r22
    1974:	11 24       	eor	r1, r1
    1976:	30 19       	sub	r19, r0
    1978:	30 5d       	subi	r19, 0xD0	; 208
    197a:	31 93       	st	Z+, r19
    197c:	de f6       	brtc	.-74     	; 0x1934 <__ultoa_invert+0xe>
    197e:	cf 01       	movw	r24, r30
    1980:	08 95       	ret
    1982:	46 2f       	mov	r20, r22
    1984:	47 70       	andi	r20, 0x07	; 7
    1986:	40 5d       	subi	r20, 0xD0	; 208
    1988:	41 93       	st	Z+, r20
    198a:	b3 e0       	ldi	r27, 0x03	; 3
    198c:	0f d0       	rcall	.+30     	; 0x19ac <__ultoa_invert+0x86>
    198e:	c9 f7       	brne	.-14     	; 0x1982 <__ultoa_invert+0x5c>
    1990:	f6 cf       	rjmp	.-20     	; 0x197e <__ultoa_invert+0x58>
    1992:	46 2f       	mov	r20, r22
    1994:	4f 70       	andi	r20, 0x0F	; 15
    1996:	40 5d       	subi	r20, 0xD0	; 208
    1998:	4a 33       	cpi	r20, 0x3A	; 58
    199a:	18 f0       	brcs	.+6      	; 0x19a2 <__ultoa_invert+0x7c>
    199c:	49 5d       	subi	r20, 0xD9	; 217
    199e:	31 fd       	sbrc	r19, 1
    19a0:	40 52       	subi	r20, 0x20	; 32
    19a2:	41 93       	st	Z+, r20
    19a4:	02 d0       	rcall	.+4      	; 0x19aa <__ultoa_invert+0x84>
    19a6:	a9 f7       	brne	.-22     	; 0x1992 <__ultoa_invert+0x6c>
    19a8:	ea cf       	rjmp	.-44     	; 0x197e <__ultoa_invert+0x58>
    19aa:	b4 e0       	ldi	r27, 0x04	; 4
    19ac:	a6 95       	lsr	r26
    19ae:	97 95       	ror	r25
    19b0:	87 95       	ror	r24
    19b2:	77 95       	ror	r23
    19b4:	67 95       	ror	r22
    19b6:	ba 95       	dec	r27
    19b8:	c9 f7       	brne	.-14     	; 0x19ac <__ultoa_invert+0x86>
    19ba:	00 97       	sbiw	r24, 0x00	; 0
    19bc:	61 05       	cpc	r22, r1
    19be:	71 05       	cpc	r23, r1
    19c0:	08 95       	ret
    19c2:	9b 01       	movw	r18, r22
    19c4:	ac 01       	movw	r20, r24
    19c6:	0a 2e       	mov	r0, r26
    19c8:	06 94       	lsr	r0
    19ca:	57 95       	ror	r21
    19cc:	47 95       	ror	r20
    19ce:	37 95       	ror	r19
    19d0:	27 95       	ror	r18
    19d2:	ba 95       	dec	r27
    19d4:	c9 f7       	brne	.-14     	; 0x19c8 <__ultoa_invert+0xa2>
    19d6:	62 0f       	add	r22, r18
    19d8:	73 1f       	adc	r23, r19
    19da:	84 1f       	adc	r24, r20
    19dc:	95 1f       	adc	r25, r21
    19de:	a0 1d       	adc	r26, r0
    19e0:	08 95       	ret

000019e2 <_exit>:
    19e2:	f8 94       	cli

000019e4 <__stop_program>:
    19e4:	ff cf       	rjmp	.-2      	; 0x19e4 <__stop_program>
